
hello_world:     file format elf64-x86-64
hello_world


Disassembly of section .init:

0000000000404000 <_init>:
  404000:	48 83 ec 08          	sub    $0x8,%rsp
  404004:	48 8b 05 d5 0f 02 00 	mov    0x20fd5(%rip),%rax        # 424fe0 <__gmon_start__@Base>
  40400b:	48 85 c0             	test   %rax,%rax
  40400e:	74 02                	je     404012 <_init+0x12>
  404010:	ff d0                	call   *%rax
  404012:	48 83 c4 08          	add    $0x8,%rsp
  404016:	c3                   	ret

Disassembly of section .plt:

0000000000404020 <_ZSt8to_charsPcS_f@plt-0x10>:
  404020:	ff 35 ca 0f 02 00    	push   0x20fca(%rip)        # 424ff0 <_GLOBAL_OFFSET_TABLE_+0x8>
  404026:	ff 25 cc 0f 02 00    	jmp    *0x20fcc(%rip)        # 424ff8 <_GLOBAL_OFFSET_TABLE_+0x10>
  40402c:	0f 1f 40 00          	nopl   0x0(%rax)

0000000000404030 <_ZSt8to_charsPcS_f@plt>:
  404030:	ff 25 ca 0f 02 00    	jmp    *0x20fca(%rip)        # 425000 <_ZSt8to_charsPcS_f@GLIBCXX_3.4.29>
  404036:	68 00 00 00 00       	push   $0x0
  40403b:	e9 e0 ff ff ff       	jmp    404020 <_init+0x20>

0000000000404040 <frexpf@plt>:
  404040:	ff 25 c2 0f 02 00    	jmp    *0x20fc2(%rip)        # 425008 <frexpf@GLIBC_2.2.5>
  404046:	68 01 00 00 00       	push   $0x1
  40404b:	e9 d0 ff ff ff       	jmp    404020 <_init+0x20>

0000000000404050 <_ZSt8to_charsPcS_eSt12chars_format@plt>:
  404050:	ff 25 ba 0f 02 00    	jmp    *0x20fba(%rip)        # 425010 <_ZSt8to_charsPcS_eSt12chars_format@GLIBCXX_3.4.29>
  404056:	68 02 00 00 00       	push   $0x2
  40405b:	e9 c0 ff ff ff       	jmp    404020 <_init+0x20>

0000000000404060 <_ZNKSt6localeeqERKS_@plt>:
  404060:	ff 25 b2 0f 02 00    	jmp    *0x20fb2(%rip)        # 425018 <_ZNKSt6localeeqERKS_@GLIBCXX_3.4>
  404066:	68 03 00 00 00       	push   $0x3
  40406b:	e9 b0 ff ff ff       	jmp    404020 <_init+0x20>

0000000000404070 <_ZSt8to_charsPcS_d@plt>:
  404070:	ff 25 aa 0f 02 00    	jmp    *0x20faa(%rip)        # 425020 <_ZSt8to_charsPcS_d@GLIBCXX_3.4.29>
  404076:	68 04 00 00 00       	push   $0x4
  40407b:	e9 a0 ff ff ff       	jmp    404020 <_init+0x20>

0000000000404080 <__udivti3@plt>:
  404080:	ff 25 a2 0f 02 00    	jmp    *0x20fa2(%rip)        # 425028 <__udivti3@GCC_3.0>
  404086:	68 05 00 00 00       	push   $0x5
  40408b:	e9 90 ff ff ff       	jmp    404020 <_init+0x20>

0000000000404090 <_ZSt17__throw_bad_allocv@plt>:
  404090:	ff 25 9a 0f 02 00    	jmp    *0x20f9a(%rip)        # 425030 <_ZSt17__throw_bad_allocv@GLIBCXX_3.4>
  404096:	68 06 00 00 00       	push   $0x6
  40409b:	e9 80 ff ff ff       	jmp    404020 <_init+0x20>

00000000004040a0 <strlen@plt>:
  4040a0:	ff 25 92 0f 02 00    	jmp    *0x20f92(%rip)        # 425038 <strlen@GLIBC_2.2.5>
  4040a6:	68 07 00 00 00       	push   $0x7
  4040ab:	e9 70 ff ff ff       	jmp    404020 <_init+0x20>

00000000004040b0 <_ZSt9use_facetINSt7__cxx118numpunctIcEEERKT_RKSt6locale@plt>:
  4040b0:	ff 25 8a 0f 02 00    	jmp    *0x20f8a(%rip)        # 425040 <_ZSt9use_facetINSt7__cxx118numpunctIcEEERKT_RKSt6locale@GLIBCXX_3.4.21>
  4040b6:	68 08 00 00 00       	push   $0x8
  4040bb:	e9 60 ff ff ff       	jmp    404020 <_init+0x20>

00000000004040c0 <memcmp@plt>:
  4040c0:	ff 25 82 0f 02 00    	jmp    *0x20f82(%rip)        # 425048 <memcmp@GLIBC_2.2.5>
  4040c6:	68 09 00 00 00       	push   $0x9
  4040cb:	e9 50 ff ff ff       	jmp    404020 <_init+0x20>

00000000004040d0 <__cxa_allocate_exception@plt>:
  4040d0:	ff 25 7a 0f 02 00    	jmp    *0x20f7a(%rip)        # 425050 <__cxa_allocate_exception@CXXABI_1.3>
  4040d6:	68 0a 00 00 00       	push   $0xa
  4040db:	e9 40 ff ff ff       	jmp    404020 <_init+0x20>

00000000004040e0 <__gttf2@plt>:
  4040e0:	ff 25 72 0f 02 00    	jmp    *0x20f72(%rip)        # 425058 <__gttf2@GCC_4.3.0>
  4040e6:	68 0b 00 00 00       	push   $0xb
  4040eb:	e9 30 ff ff ff       	jmp    404020 <_init+0x20>

00000000004040f0 <_ZSt20__throw_length_errorPKc@plt>:
  4040f0:	ff 25 6a 0f 02 00    	jmp    *0x20f6a(%rip)        # 425060 <_ZSt20__throw_length_errorPKc@GLIBCXX_3.4>
  4040f6:	68 0c 00 00 00       	push   $0xc
  4040fb:	e9 20 ff ff ff       	jmp    404020 <_init+0x20>

0000000000404100 <memset@plt>:
  404100:	ff 25 62 0f 02 00    	jmp    *0x20f62(%rip)        # 425068 <memset@GLIBC_2.2.5>
  404106:	68 0d 00 00 00       	push   $0xd
  40410b:	e9 10 ff ff ff       	jmp    404020 <_init+0x20>

0000000000404110 <_ZNKSt7__cxx118numpunctIcE13decimal_pointEv@plt>:
  404110:	ff 25 5a 0f 02 00    	jmp    *0x20f5a(%rip)        # 425070 <_ZNKSt7__cxx118numpunctIcE13decimal_pointEv@GLIBCXX_3.4.21>
  404116:	68 0e 00 00 00       	push   $0xe
  40411b:	e9 00 ff ff ff       	jmp    404020 <_init+0x20>

0000000000404120 <_ZSt8to_charsPcS_e@plt>:
  404120:	ff 25 52 0f 02 00    	jmp    *0x20f52(%rip)        # 425078 <_ZSt8to_charsPcS_e@GLIBCXX_3.4.29>
  404126:	68 0f 00 00 00       	push   $0xf
  40412b:	e9 f0 fe ff ff       	jmp    404020 <_init+0x20>

0000000000404130 <_ZSt8to_charsPcS_dSt12chars_format@plt>:
  404130:	ff 25 4a 0f 02 00    	jmp    *0x20f4a(%rip)        # 425080 <_ZSt8to_charsPcS_dSt12chars_format@GLIBCXX_3.4.29>
  404136:	68 10 00 00 00       	push   $0x10
  40413b:	e9 e0 fe ff ff       	jmp    404020 <_init+0x20>

0000000000404140 <_ZSt8to_charsPcS_dSt12chars_formati@plt>:
  404140:	ff 25 42 0f 02 00    	jmp    *0x20f42(%rip)        # 425088 <_ZSt8to_charsPcS_dSt12chars_formati@GLIBCXX_3.4.29>
  404146:	68 11 00 00 00       	push   $0x11
  40414b:	e9 d0 fe ff ff       	jmp    404020 <_init+0x20>

0000000000404150 <_ZNKSt7__cxx118numpunctIcE13thousands_sepEv@plt>:
  404150:	ff 25 3a 0f 02 00    	jmp    *0x20f3a(%rip)        # 425090 <_ZNKSt7__cxx118numpunctIcE13thousands_sepEv@GLIBCXX_3.4.21>
  404156:	68 12 00 00 00       	push   $0x12
  40415b:	e9 c0 fe ff ff       	jmp    404020 <_init+0x20>

0000000000404160 <_ZNSt6localeC1ERKS_@plt>:
  404160:	ff 25 32 0f 02 00    	jmp    *0x20f32(%rip)        # 425098 <_ZNSt6localeC1ERKS_@GLIBCXX_3.4>
  404166:	68 13 00 00 00       	push   $0x13
  40416b:	e9 b0 fe ff ff       	jmp    404020 <_init+0x20>

0000000000404170 <_ZSt20__throw_system_errori@plt>:
  404170:	ff 25 2a 0f 02 00    	jmp    *0x20f2a(%rip)        # 4250a0 <_ZSt20__throw_system_errori@GLIBCXX_3.4.11>
  404176:	68 14 00 00 00       	push   $0x14
  40417b:	e9 a0 fe ff ff       	jmp    404020 <_init+0x20>

0000000000404180 <_ZSt19__throw_logic_errorPKc@plt>:
  404180:	ff 25 22 0f 02 00    	jmp    *0x20f22(%rip)        # 4250a8 <_ZSt19__throw_logic_errorPKc@GLIBCXX_3.4>
  404186:	68 15 00 00 00       	push   $0x15
  40418b:	e9 90 fe ff ff       	jmp    404020 <_init+0x20>

0000000000404190 <__cxa_free_exception@plt>:
  404190:	ff 25 1a 0f 02 00    	jmp    *0x20f1a(%rip)        # 4250b0 <__cxa_free_exception@CXXABI_1.3>
  404196:	68 16 00 00 00       	push   $0x16
  40419b:	e9 80 fe ff ff       	jmp    404020 <_init+0x20>

00000000004041a0 <_ZSt8to_charsPcS_DF128_St12chars_format@plt>:
  4041a0:	ff 25 12 0f 02 00    	jmp    *0x20f12(%rip)        # 4250b8 <_ZSt8to_charsPcS_DF128_St12chars_format@GLIBCXX_3.4.31>
  4041a6:	68 17 00 00 00       	push   $0x17
  4041ab:	e9 70 fe ff ff       	jmp    404020 <_init+0x20>

00000000004041b0 <_ZNKSt7__cxx118numpunctIcE9falsenameEv@plt>:
  4041b0:	ff 25 0a 0f 02 00    	jmp    *0x20f0a(%rip)        # 4250c0 <_ZNKSt7__cxx118numpunctIcE9falsenameEv@GLIBCXX_3.4.21>
  4041b6:	68 18 00 00 00       	push   $0x18
  4041bb:	e9 60 fe ff ff       	jmp    404020 <_init+0x20>

00000000004041c0 <_ZSt28__throw_bad_array_new_lengthv@plt>:
  4041c0:	ff 25 02 0f 02 00    	jmp    *0x20f02(%rip)        # 4250c8 <_ZSt28__throw_bad_array_new_lengthv@GLIBCXX_3.4.29>
  4041c6:	68 19 00 00 00       	push   $0x19
  4041cb:	e9 50 fe ff ff       	jmp    404020 <_init+0x20>

00000000004041d0 <memcpy@plt>:
  4041d0:	ff 25 fa 0e 02 00    	jmp    *0x20efa(%rip)        # 4250d0 <memcpy@GLIBC_2.14>
  4041d6:	68 1a 00 00 00       	push   $0x1a
  4041db:	e9 40 fe ff ff       	jmp    404020 <_init+0x20>

00000000004041e0 <_ZSt8to_charsPcS_DF128_St12chars_formati@plt>:
  4041e0:	ff 25 f2 0e 02 00    	jmp    *0x20ef2(%rip)        # 4250d8 <_ZSt8to_charsPcS_DF128_St12chars_formati@GLIBCXX_3.4.31>
  4041e6:	68 1b 00 00 00       	push   $0x1b
  4041eb:	e9 30 fe ff ff       	jmp    404020 <_init+0x20>

00000000004041f0 <_ZNKSt7__cxx118numpunctIcE8truenameEv@plt>:
  4041f0:	ff 25 ea 0e 02 00    	jmp    *0x20eea(%rip)        # 4250e0 <_ZNKSt7__cxx118numpunctIcE8truenameEv@GLIBCXX_3.4.21>
  4041f6:	68 1c 00 00 00       	push   $0x1c
  4041fb:	e9 20 fe ff ff       	jmp    404020 <_init+0x20>

0000000000404200 <_ZdlPv@plt>:
  404200:	ff 25 e2 0e 02 00    	jmp    *0x20ee2(%rip)        # 4250e8 <_ZdlPv@GLIBCXX_3.4>
  404206:	68 1d 00 00 00       	push   $0x1d
  40420b:	e9 10 fe ff ff       	jmp    404020 <_init+0x20>

0000000000404210 <_Znwm@plt>:
  404210:	ff 25 da 0e 02 00    	jmp    *0x20eda(%rip)        # 4250f0 <_Znwm@GLIBCXX_3.4>
  404216:	68 1e 00 00 00       	push   $0x1e
  40421b:	e9 00 fe ff ff       	jmp    404020 <_init+0x20>

0000000000404220 <_ZSt8to_charsPcS_fSt12chars_format@plt>:
  404220:	ff 25 d2 0e 02 00    	jmp    *0x20ed2(%rip)        # 4250f8 <_ZSt8to_charsPcS_fSt12chars_format@GLIBCXX_3.4.29>
  404226:	68 1f 00 00 00       	push   $0x1f
  40422b:	e9 f0 fd ff ff       	jmp    404020 <_init+0x20>

0000000000404230 <_ZdlPvm@plt>:
  404230:	ff 25 ca 0e 02 00    	jmp    *0x20eca(%rip)        # 425100 <_ZdlPvm@CXXABI_1.3.9>
  404236:	68 20 00 00 00       	push   $0x20
  40423b:	e9 e0 fd ff ff       	jmp    404020 <_init+0x20>

0000000000404240 <_ZSt8to_charsPcS_eSt12chars_formati@plt>:
  404240:	ff 25 c2 0e 02 00    	jmp    *0x20ec2(%rip)        # 425108 <_ZSt8to_charsPcS_eSt12chars_formati@GLIBCXX_3.4.29>
  404246:	68 21 00 00 00       	push   $0x21
  40424b:	e9 d0 fd ff ff       	jmp    404020 <_init+0x20>

0000000000404250 <_ZNSt13runtime_errorD2Ev@plt>:
  404250:	ff 25 ba 0e 02 00    	jmp    *0x20eba(%rip)        # 425110 <_ZNSt13runtime_errorD2Ev@GLIBCXX_3.4>
  404256:	68 22 00 00 00       	push   $0x22
  40425b:	e9 c0 fd ff ff       	jmp    404020 <_init+0x20>

0000000000404260 <memchr@plt>:
  404260:	ff 25 b2 0e 02 00    	jmp    *0x20eb2(%rip)        # 425118 <memchr@GLIBC_2.2.5>
  404266:	68 23 00 00 00       	push   $0x23
  40426b:	e9 b0 fd ff ff       	jmp    404020 <_init+0x20>

0000000000404270 <_ZSt8to_charsPcS_fSt12chars_formati@plt>:
  404270:	ff 25 aa 0e 02 00    	jmp    *0x20eaa(%rip)        # 425120 <_ZSt8to_charsPcS_fSt12chars_formati@GLIBCXX_3.4.29>
  404276:	68 24 00 00 00       	push   $0x24
  40427b:	e9 a0 fd ff ff       	jmp    404020 <_init+0x20>

0000000000404280 <exit@plt>:
  404280:	ff 25 a2 0e 02 00    	jmp    *0x20ea2(%rip)        # 425128 <exit@GLIBC_2.2.5>
  404286:	68 25 00 00 00       	push   $0x25
  40428b:	e9 90 fd ff ff       	jmp    404020 <_init+0x20>

0000000000404290 <_ZNKSt7__cxx118numpunctIcE8groupingEv@plt>:
  404290:	ff 25 9a 0e 02 00    	jmp    *0x20e9a(%rip)        # 425130 <_ZNKSt7__cxx118numpunctIcE8groupingEv@GLIBCXX_3.4.21>
  404296:	68 26 00 00 00       	push   $0x26
  40429b:	e9 80 fd ff ff       	jmp    404020 <_init+0x20>

00000000004042a0 <_ZNSt6locale7classicEv@plt>:
  4042a0:	ff 25 92 0e 02 00    	jmp    *0x20e92(%rip)        # 425138 <_ZNSt6locale7classicEv@GLIBCXX_3.4>
  4042a6:	68 27 00 00 00       	push   $0x27
  4042ab:	e9 70 fd ff ff       	jmp    404020 <_init+0x20>

00000000004042b0 <_ZNKSt13runtime_error4whatEv@plt>:
  4042b0:	ff 25 8a 0e 02 00    	jmp    *0x20e8a(%rip)        # 425140 <_ZNKSt13runtime_error4whatEv@GLIBCXX_3.4>
  4042b6:	68 28 00 00 00       	push   $0x28
  4042bb:	e9 60 fd ff ff       	jmp    404020 <_init+0x20>

00000000004042c0 <_ZNSt7__cxx1112basic_stringIcSt11char_traitsIcESaIcEE15_M_replace_coldEPcmPKcmm@plt>:
  4042c0:	ff 25 82 0e 02 00    	jmp    *0x20e82(%rip)        # 425148 <_ZNSt7__cxx1112basic_stringIcSt11char_traitsIcESaIcEE15_M_replace_coldEPcmPKcmm@GLIBCXX_3.4.31>
  4042c6:	68 29 00 00 00       	push   $0x29
  4042cb:	e9 50 fd ff ff       	jmp    404020 <_init+0x20>

00000000004042d0 <_ZNSt6localeD1Ev@plt>:
  4042d0:	ff 25 7a 0e 02 00    	jmp    *0x20e7a(%rip)        # 425150 <_ZNSt6localeD1Ev@GLIBCXX_3.4>
  4042d6:	68 2a 00 00 00       	push   $0x2a
  4042db:	e9 40 fd ff ff       	jmp    404020 <_init+0x20>

00000000004042e0 <__unordtf2@plt>:
  4042e0:	ff 25 72 0e 02 00    	jmp    *0x20e72(%rip)        # 425158 <__unordtf2@GCC_4.3.0>
  4042e6:	68 2b 00 00 00       	push   $0x2b
  4042eb:	e9 30 fd ff ff       	jmp    404020 <_init+0x20>

00000000004042f0 <_ZSt24__throw_out_of_range_fmtPKcz@plt>:
  4042f0:	ff 25 6a 0e 02 00    	jmp    *0x20e6a(%rip)        # 425160 <_ZSt24__throw_out_of_range_fmtPKcz@GLIBCXX_3.4.20>
  4042f6:	68 2c 00 00 00       	push   $0x2c
  4042fb:	e9 20 fd ff ff       	jmp    404020 <_init+0x20>

0000000000404300 <frexpl@plt>:
  404300:	ff 25 62 0e 02 00    	jmp    *0x20e62(%rip)        # 425168 <frexpl@GLIBC_2.2.5>
  404306:	68 2d 00 00 00       	push   $0x2d
  40430b:	e9 10 fd ff ff       	jmp    404020 <_init+0x20>

0000000000404310 <__umodti3@plt>:
  404310:	ff 25 5a 0e 02 00    	jmp    *0x20e5a(%rip)        # 425170 <__umodti3@GCC_3.0>
  404316:	68 2e 00 00 00       	push   $0x2e
  40431b:	e9 00 fd ff ff       	jmp    404020 <_init+0x20>

0000000000404320 <_ZNKSt6locale4nameB5cxx11Ev@plt>:
  404320:	ff 25 52 0e 02 00    	jmp    *0x20e52(%rip)        # 425178 <_ZNKSt6locale4nameB5cxx11Ev@GLIBCXX_3.4.21>
  404326:	68 2f 00 00 00       	push   $0x2f
  40432b:	e9 f0 fc ff ff       	jmp    404020 <_init+0x20>

0000000000404330 <memmove@plt>:
  404330:	ff 25 4a 0e 02 00    	jmp    *0x20e4a(%rip)        # 425180 <memmove@GLIBC_2.2.5>
  404336:	68 30 00 00 00       	push   $0x30
  40433b:	e9 e0 fc ff ff       	jmp    404020 <_init+0x20>

0000000000404340 <__gxx_personality_v0@plt>:
  404340:	ff 25 42 0e 02 00    	jmp    *0x20e42(%rip)        # 425188 <__gxx_personality_v0@CXXABI_1.3>
  404346:	68 31 00 00 00       	push   $0x31
  40434b:	e9 d0 fc ff ff       	jmp    404020 <_init+0x20>

0000000000404350 <_ZSt8to_charsPcS_DF128_@plt>:
  404350:	ff 25 3a 0e 02 00    	jmp    *0x20e3a(%rip)        # 425190 <_ZSt8to_charsPcS_DF128_@GLIBCXX_3.4.31>
  404356:	68 32 00 00 00       	push   $0x32
  40435b:	e9 c0 fc ff ff       	jmp    404020 <_init+0x20>

0000000000404360 <__cxa_throw@plt>:
  404360:	ff 25 32 0e 02 00    	jmp    *0x20e32(%rip)        # 425198 <__cxa_throw@CXXABI_1.3>
  404366:	68 33 00 00 00       	push   $0x33
  40436b:	e9 b0 fc ff ff       	jmp    404020 <_init+0x20>

0000000000404370 <_Unwind_Resume@plt>:
  404370:	ff 25 2a 0e 02 00    	jmp    *0x20e2a(%rip)        # 4251a0 <_Unwind_Resume@GCC_3.0>
  404376:	68 34 00 00 00       	push   $0x34
  40437b:	e9 a0 fc ff ff       	jmp    404020 <_init+0x20>

0000000000404380 <toupper@plt>:
  404380:	ff 25 22 0e 02 00    	jmp    *0x20e22(%rip)        # 4251a8 <toupper@GLIBC_2.2.5>
  404386:	68 35 00 00 00       	push   $0x35
  40438b:	e9 90 fc ff ff       	jmp    404020 <_init+0x20>

0000000000404390 <frexp@plt>:
  404390:	ff 25 1a 0e 02 00    	jmp    *0x20e1a(%rip)        # 4251b0 <frexp@GLIBC_2.2.5>
  404396:	68 36 00 00 00       	push   $0x36
  40439b:	e9 80 fc ff ff       	jmp    404020 <_init+0x20>

00000000004043a0 <_ZNSt13runtime_errorC2EPKc@plt>:
  4043a0:	ff 25 12 0e 02 00    	jmp    *0x20e12(%rip)        # 4251b8 <_ZNSt13runtime_errorC2EPKc@GLIBCXX_3.4.21>
  4043a6:	68 37 00 00 00       	push   $0x37
  4043ab:	e9 70 fc ff ff       	jmp    404020 <_init+0x20>

00000000004043b0 <__cxa_pure_virtual@plt>:
  4043b0:	ff 25 0a 0e 02 00    	jmp    *0x20e0a(%rip)        # 4251c0 <__cxa_pure_virtual@CXXABI_1.3>
  4043b6:	68 38 00 00 00       	push   $0x38
  4043bb:	e9 60 fc ff ff       	jmp    404020 <_init+0x20>

00000000004043c0 <fwrite@plt>:
  4043c0:	ff 25 02 0e 02 00    	jmp    *0x20e02(%rip)        # 4251c8 <fwrite@GLIBC_2.2.5>
  4043c6:	68 39 00 00 00       	push   $0x39
  4043cb:	e9 50 fc ff ff       	jmp    404020 <_init+0x20>

00000000004043d0 <_ZNSt6localeC1Ev@plt>:
  4043d0:	ff 25 fa 0d 02 00    	jmp    *0x20dfa(%rip)        # 4251d0 <_ZNSt6localeC1Ev@GLIBCXX_3.4>
  4043d6:	68 3a 00 00 00       	push   $0x3a
  4043db:	e9 40 fc ff ff       	jmp    404020 <_init+0x20>

Disassembly of section .text:

00000000004043e0 <_start>:
  4043e0:	31 ed                	xor    %ebp,%ebp
  4043e2:	49 89 d1             	mov    %rdx,%r9
  4043e5:	5e                   	pop    %rsi
  4043e6:	48 89 e2             	mov    %rsp,%rdx
  4043e9:	48 83 e4 f0          	and    $0xfffffffffffffff0,%rsp
  4043ed:	50                   	push   %rax
  4043ee:	54                   	push   %rsp
  4043ef:	45 31 c0             	xor    %r8d,%r8d
  4043f2:	31 c9                	xor    %ecx,%ecx
  4043f4:	48 c7 c7 c6 44 40 00 	mov    $0x4044c6,%rdi
  4043fb:	ff 15 d7 0b 02 00    	call   *0x20bd7(%rip)        # 424fd8 <__libc_start_main@GLIBC_2.34>
  404401:	f4                   	hlt
  404402:	66 2e 0f 1f 84 00 00 	cs nopw 0x0(%rax,%rax,1)
  404409:	00 00 00
  40440c:	0f 1f 40 00          	nopl   0x0(%rax)

0000000000404410 <_dl_relocate_static_pie>:
  404410:	c3                   	ret
  404411:	66 2e 0f 1f 84 00 00 	cs nopw 0x0(%rax,%rax,1)
  404418:	00 00 00
  40441b:	0f 1f 44 00 00       	nopl   0x0(%rax,%rax,1)

0000000000404420 <deregister_tm_clones>:
  404420:	b8 e8 51 42 00       	mov    $0x4251e8,%eax
  404425:	48 3d e8 51 42 00    	cmp    $0x4251e8,%rax
  40442b:	74 13                	je     404440 <deregister_tm_clones+0x20>
  40442d:	b8 00 00 00 00       	mov    $0x0,%eax
  404432:	48 85 c0             	test   %rax,%rax
  404435:	74 09                	je     404440 <deregister_tm_clones+0x20>
  404437:	bf e8 51 42 00       	mov    $0x4251e8,%edi
  40443c:	ff e0                	jmp    *%rax
  40443e:	66 90                	xchg   %ax,%ax
  404440:	c3                   	ret
  404441:	66 66 2e 0f 1f 84 00 	data16 cs nopw 0x0(%rax,%rax,1)
  404448:	00 00 00 00
  40444c:	0f 1f 40 00          	nopl   0x0(%rax)

0000000000404450 <register_tm_clones>:
  404450:	be e8 51 42 00       	mov    $0x4251e8,%esi
  404455:	48 81 ee e8 51 42 00 	sub    $0x4251e8,%rsi
  40445c:	48 89 f0             	mov    %rsi,%rax
  40445f:	48 c1 ee 3f          	shr    $0x3f,%rsi
  404463:	48 c1 f8 03          	sar    $0x3,%rax
  404467:	48 01 c6             	add    %rax,%rsi
  40446a:	48 d1 fe             	sar    %rsi
  40446d:	74 11                	je     404480 <register_tm_clones+0x30>
  40446f:	b8 00 00 00 00       	mov    $0x0,%eax
  404474:	48 85 c0             	test   %rax,%rax
  404477:	74 07                	je     404480 <register_tm_clones+0x30>
  404479:	bf e8 51 42 00       	mov    $0x4251e8,%edi
  40447e:	ff e0                	jmp    *%rax
  404480:	c3                   	ret
  404481:	66 66 2e 0f 1f 84 00 	data16 cs nopw 0x0(%rax,%rax,1)
  404488:	00 00 00 00
  40448c:	0f 1f 40 00          	nopl   0x0(%rax)

0000000000404490 <__do_global_dtors_aux>:
  404490:	f3 0f 1e fa          	endbr64
  404494:	80 3d 55 0d 02 00 00 	cmpb   $0x0,0x20d55(%rip)        # 4251f0 <completed.0>
  40449b:	75 13                	jne    4044b0 <__do_global_dtors_aux+0x20>
  40449d:	55                   	push   %rbp
  40449e:	48 89 e5             	mov    %rsp,%rbp
  4044a1:	e8 7a ff ff ff       	call   404420 <deregister_tm_clones>
  4044a6:	c6 05 43 0d 02 00 01 	movb   $0x1,0x20d43(%rip)        # 4251f0 <completed.0>
  4044ad:	5d                   	pop    %rbp
  4044ae:	c3                   	ret
  4044af:	90                   	nop
  4044b0:	c3                   	ret
  4044b1:	66 66 2e 0f 1f 84 00 	data16 cs nopw 0x0(%rax,%rax,1)
  4044b8:	00 00 00 00
  4044bc:	0f 1f 40 00          	nopl   0x0(%rax)

00000000004044c0 <frame_dummy>:
  4044c0:	f3 0f 1e fa          	endbr64
  4044c4:	eb 8a                	jmp    404450 <register_tm_clones>

00000000004044c6 <main>:
#include <print>
#include <string>


int main(void)
{
  4044c6:	55                   	push   %rbp
  4044c7:	48 89 e5             	mov    %rsp,%rbp
  4044ca:	41 55                	push   %r13
  4044cc:	41 54                	push   %r12
  4044ce:	53                   	push   %rbx
  4044cf:	48 83 ec 38          	sub    $0x38,%rsp
  4044d3:	48 8d 45 d7          	lea    -0x29(%rbp),%rax
  4044d7:	48 89 45 d8          	mov    %rax,-0x28(%rbp)
      typedef std::true_type propagate_on_container_move_assignment;
#endif

      __attribute__((__always_inline__))
      _GLIBCXX20_CONSTEXPR
      __new_allocator() _GLIBCXX_USE_NOEXCEPT { }
  4044db:	90                   	nop

      // _GLIBCXX_RESOLVE_LIB_DEFECTS
      // 3035. std::allocator's constructors should be constexpr
      __attribute__((__always_inline__))
      _GLIBCXX20_CONSTEXPR
      allocator() _GLIBCXX_NOTHROW { }
  4044dc:	90                   	nop
	std::string s {"Hallo \"Professional C++\" Buch :-)"};
  4044dd:	48 8d 55 d7          	lea    -0x29(%rbp),%rdx
  4044e1:	48 8d 45 b0          	lea    -0x50(%rbp),%rax
  4044e5:	be 80 a1 41 00       	mov    $0x41a180,%esi
  4044ea:	48 89 c7             	mov    %rax,%rdi
  4044ed:	e8 d6 11 00 00       	call   4056c8 <_ZNSt7__cxx1112basic_stringIcSt11char_traitsIcESaIcEEC1IS3_EEPKcRKS3_>

      __attribute__((__always_inline__))
#if __cpp_constexpr_dynamic_alloc
      constexpr
#endif
      ~allocator() _GLIBCXX_NOTHROW { }
  4044f2:	90                   	nop
	std::println("{}", s);
  4044f3:	41 bc 02 00 00 00    	mov    $0x2,%r12d
  4044f9:	41 bd a2 a1 41 00    	mov    $0x41a1a2,%r13d
  4044ff:	48 8d 45 b0          	lea    -0x50(%rbp),%rax
  404503:	4c 89 e6             	mov    %r12,%rsi
  404506:	4c 89 e9             	mov    %r13,%rcx
  404509:	48 89 c2             	mov    %rax,%rdx
  40450c:	48 89 f7             	mov    %rsi,%rdi
  40450f:	48 89 ce             	mov    %rcx,%rsi
  404512:	e8 60 33 00 00       	call   407877 <_ZSt7printlnIJRNSt7__cxx1112basic_stringIcSt11char_traitsIcESaIcEEEEEvSt19basic_format_stringIcJDpNSt13type_identityIT_E4typeEEEDpOS9_>

	exit (EXIT_SUCCESS);
  404517:	bf 00 00 00 00       	mov    $0x0,%edi
  40451c:	e8 5f fd ff ff       	call   404280 <exit@plt>
}
  404521:	48 89 c3             	mov    %rax,%rbx
  404524:	48 8d 45 b0          	lea    -0x50(%rbp),%rax
  404528:	48 89 c7             	mov    %rax,%rdi
  40452b:	e8 52 24 00 00       	call   406982 <_ZNSt7__cxx1112basic_stringIcSt11char_traitsIcESaIcEED1Ev>
  404530:	48 89 d8             	mov    %rbx,%rax
  404533:	48 89 c7             	mov    %rax,%rdi
  404536:	e8 35 fe ff ff       	call   404370 <_Unwind_Resume@plt>

000000000040453b <_ZSt21is_constant_evaluatedv>:
  40453b:	55                   	push   %rbp
  40453c:	48 89 e5             	mov    %rsp,%rbp
  40453f:	b8 00 00 00 00       	mov    $0x0,%eax
  404544:	5d                   	pop    %rbp
  404545:	c3                   	ret

0000000000404546 <_ZSteqSt15strong_orderingNSt9__cmp_cat8__unspecE>:
    { return weak_ordering(__cmp_cat::_Ord(_M_value)); }

    // comparisons
    [[nodiscard]]
    friend constexpr bool
    operator==(strong_ordering __v, __cmp_cat::__unspec) noexcept
  404546:	55                   	push   %rbp
  404547:	48 89 e5             	mov    %rsp,%rbp
  40454a:	40 88 7d ff          	mov    %dil,-0x1(%rbp)
    { return __v._M_value == 0; }
  40454e:	0f b6 45 ff          	movzbl -0x1(%rbp),%eax
  404552:	84 c0                	test   %al,%al
  404554:	0f 94 c0             	sete   %al
  404557:	5d                   	pop    %rbp
  404558:	c3                   	ret

0000000000404559 <_ZStltSt15strong_orderingNSt9__cmp_cat8__unspecE>:
    friend constexpr bool
    operator==(strong_ordering, strong_ordering) noexcept = default;

    [[nodiscard]]
    friend constexpr bool
    operator< (strong_ordering __v, __cmp_cat::__unspec) noexcept
  404559:	55                   	push   %rbp
  40455a:	48 89 e5             	mov    %rsp,%rbp
  40455d:	40 88 7d ff          	mov    %dil,-0x1(%rbp)
    { return __v._M_value < 0; }
  404561:	0f b6 45 ff          	movzbl -0x1(%rbp),%eax
  404565:	c0 e8 07             	shr    $0x7,%al
  404568:	5d                   	pop    %rbp
  404569:	c3                   	ret

000000000040456a <_ZnwmPv>:
#endif // __cpp_sized_deallocation
#endif // __cpp_aligned_new

// Default placement versions of operator new.
_GLIBCXX_NODISCARD inline void* operator new(std::size_t, void* __p) _GLIBCXX_USE_NOEXCEPT
{ return __p; }
  40456a:	55                   	push   %rbp
  40456b:	48 89 e5             	mov    %rsp,%rbp
  40456e:	48 89 7d f8          	mov    %rdi,-0x8(%rbp)
  404572:	48 89 75 f0          	mov    %rsi,-0x10(%rbp)
  404576:	48 8b 45 f0          	mov    -0x10(%rbp),%rax
  40457a:	5d                   	pop    %rbp
  40457b:	c3                   	ret

000000000040457c <_ZN9__gnu_cxx5__ops15__iter_less_valEv>:
  };

  _GLIBCXX20_CONSTEXPR
  inline _Iter_less_val
  __iter_less_val()
  { return _Iter_less_val(); }
  40457c:	55                   	push   %rbp
  40457d:	48 89 e5             	mov    %rsp,%rbp
  404580:	90                   	nop
  404581:	5d                   	pop    %rbp
  404582:	c3                   	ret

0000000000404583 <_ZN9__gnu_cxx5__ops15__val_less_iterEv>:
  };

  _GLIBCXX20_CONSTEXPR
  inline _Val_less_iter
  __val_less_iter()
  { return _Val_less_iter(); }
  404583:	55                   	push   %rbp
  404584:	48 89 e5             	mov    %rsp,%rbp
  404587:	90                   	nop
  404588:	5d                   	pop    %rbp
  404589:	c3                   	ret

000000000040458a <_ZSt8to_charsPcS_mi>:
_GLIBCXX_TO_CHARS(signed short)
_GLIBCXX_TO_CHARS(unsigned short)
_GLIBCXX_TO_CHARS(signed int)
_GLIBCXX_TO_CHARS(unsigned int)
_GLIBCXX_TO_CHARS(signed long)
_GLIBCXX_TO_CHARS(unsigned long)
  40458a:	55                   	push   %rbp
  40458b:	48 89 e5             	mov    %rsp,%rbp
  40458e:	48 83 ec 20          	sub    $0x20,%rsp
  404592:	48 89 7d f8          	mov    %rdi,-0x8(%rbp)
  404596:	48 89 75 f0          	mov    %rsi,-0x10(%rbp)
  40459a:	48 89 55 e8          	mov    %rdx,-0x18(%rbp)
  40459e:	89 4d e4             	mov    %ecx,-0x1c(%rbp)
  4045a1:	8b 4d e4             	mov    -0x1c(%rbp),%ecx
  4045a4:	48 8b 55 e8          	mov    -0x18(%rbp),%rdx
  4045a8:	48 8b 75 f0          	mov    -0x10(%rbp),%rsi
  4045ac:	48 8b 45 f8          	mov    -0x8(%rbp),%rax
  4045b0:	48 89 c7             	mov    %rax,%rdi
  4045b3:	e8 d4 1d 00 00       	call   40638c <_ZSt12__to_chars_iImESt15to_chars_resultPcS1_T_i>
  4045b8:	c9                   	leave
  4045b9:	c3                   	ret

00000000004045ba <_ZSt11__bit_widthIjEiT_>:
      return (_Tp)1u << (_Nd - std::__countl_zero((_Tp)(__x >> 1)));
    }

  template<typename _Tp>
    constexpr int
    __bit_width(_Tp __x) noexcept
  4045ba:	55                   	push   %rbp
  4045bb:	48 89 e5             	mov    %rsp,%rbp
  4045be:	48 83 ec 20          	sub    $0x20,%rsp
  4045c2:	89 7d ec             	mov    %edi,-0x14(%rbp)
    {
      constexpr auto _Nd = __gnu_cxx::__int_traits<_Tp>::__digits;
  4045c5:	c7 45 fc 20 00 00 00 	movl   $0x20,-0x4(%rbp)
      return _Nd - std::__countl_zero(__x);
  4045cc:	8b 45 ec             	mov    -0x14(%rbp),%eax
  4045cf:	89 c7                	mov    %eax,%edi
  4045d1:	e8 bc 20 00 00       	call   406692 <_ZSt13__countl_zeroIjEiT_>
  4045d6:	ba 20 00 00 00       	mov    $0x20,%edx
  4045db:	29 c2                	sub    %eax,%edx
  4045dd:	89 d0                	mov    %edx,%eax
    }
  4045df:	c9                   	leave
  4045e0:	c3                   	ret

00000000004045e1 <_ZNSt11char_traitsIcE6assignERcRKc>:
#if __cpp_lib_three_way_comparison
      using comparison_category = strong_ordering;
#endif

      static _GLIBCXX17_CONSTEXPR void
      assign(char_type& __c1, const char_type& __c2) _GLIBCXX_NOEXCEPT
  4045e1:	55                   	push   %rbp
  4045e2:	48 89 e5             	mov    %rsp,%rbp
  4045e5:	48 83 ec 10          	sub    $0x10,%rsp
  4045e9:	48 89 7d f8          	mov    %rdi,-0x8(%rbp)
  4045ed:	48 89 75 f0          	mov    %rsi,-0x10(%rbp)
  _GLIBCXX_CONSTEXPR inline bool
  __is_constant_evaluated() _GLIBCXX_NOEXCEPT
  {
#if __cpp_if_consteval >= 202106L
# define _GLIBCXX_HAVE_IS_CONSTANT_EVALUATED 1
    if consteval { return true; } else { return false; }
  4045f1:	b8 00 00 00 00       	mov    $0x0,%eax
      {
#if __cpp_constexpr_dynamic_alloc
	if (std::__is_constant_evaluated())
  4045f6:	84 c0                	test   %al,%al
  4045f8:	74 15                	je     40460f <_ZNSt11char_traitsIcE6assignERcRKc+0x2e>
	  std::construct_at(__builtin_addressof(__c1), __c2);
  4045fa:	48 8b 55 f0          	mov    -0x10(%rbp),%rdx
  4045fe:	48 8b 45 f8          	mov    -0x8(%rbp),%rax
  404602:	48 89 d6             	mov    %rdx,%rsi
  404605:	48 89 c7             	mov    %rax,%rdi
  404608:	e8 c6 20 00 00       	call   4066d3 <_ZSt12construct_atIcJRKcEEDTgsnwcvPvLi0E_T_pispcl7declvalIT0_EEEEPS3_DpOS4_>
	else
#endif
	__c1 = __c2;
      }
  40460d:	eb 0d                	jmp    40461c <_ZNSt11char_traitsIcE6assignERcRKc+0x3b>
	__c1 = __c2;
  40460f:	48 8b 45 f0          	mov    -0x10(%rbp),%rax
  404613:	0f b6 10             	movzbl (%rax),%edx
  404616:	48 8b 45 f8          	mov    -0x8(%rbp),%rax
  40461a:	88 10                	mov    %dl,(%rax)
      }
  40461c:	90                   	nop
  40461d:	c9                   	leave
  40461e:	c3                   	ret

000000000040461f <_ZNSt11char_traitsIcE2eqERKcS2_>:

      static _GLIBCXX_CONSTEXPR bool
      eq(const char_type& __c1, const char_type& __c2) _GLIBCXX_NOEXCEPT
  40461f:	55                   	push   %rbp
  404620:	48 89 e5             	mov    %rsp,%rbp
  404623:	48 89 7d f8          	mov    %rdi,-0x8(%rbp)
  404627:	48 89 75 f0          	mov    %rsi,-0x10(%rbp)
      { return __c1 == __c2; }
  40462b:	48 8b 45 f8          	mov    -0x8(%rbp),%rax
  40462f:	0f b6 10             	movzbl (%rax),%edx
  404632:	48 8b 45 f0          	mov    -0x10(%rbp),%rax
  404636:	0f b6 00             	movzbl (%rax),%eax
  404639:	38 c2                	cmp    %al,%dl
  40463b:	0f 94 c0             	sete   %al
  40463e:	5d                   	pop    %rbp
  40463f:	c3                   	ret

0000000000404640 <_ZNSt11char_traitsIcE2ltERKcS2_>:

      static _GLIBCXX_CONSTEXPR bool
      lt(const char_type& __c1, const char_type& __c2) _GLIBCXX_NOEXCEPT
  404640:	55                   	push   %rbp
  404641:	48 89 e5             	mov    %rsp,%rbp
  404644:	48 89 7d f8          	mov    %rdi,-0x8(%rbp)
  404648:	48 89 75 f0          	mov    %rsi,-0x10(%rbp)
      {
	// LWG 467.
	return (static_cast<unsigned char>(__c1)
  40464c:	48 8b 45 f8          	mov    -0x8(%rbp),%rax
  404650:	0f b6 00             	movzbl (%rax),%eax
  404653:	89 c2                	mov    %eax,%edx
		< static_cast<unsigned char>(__c2));
  404655:	48 8b 45 f0          	mov    -0x10(%rbp),%rax
  404659:	0f b6 00             	movzbl (%rax),%eax
  40465c:	38 c2                	cmp    %al,%dl
  40465e:	0f 92 c0             	setb   %al
      }
  404661:	5d                   	pop    %rbp
  404662:	c3                   	ret

0000000000404663 <_ZNSt11char_traitsIcE7compareEPKcS2_m>:

      static _GLIBCXX17_CONSTEXPR int
      compare(const char_type* __s1, const char_type* __s2, size_t __n)
  404663:	55                   	push   %rbp
  404664:	48 89 e5             	mov    %rsp,%rbp
  404667:	48 83 ec 30          	sub    $0x30,%rsp
  40466b:	48 89 7d e8          	mov    %rdi,-0x18(%rbp)
  40466f:	48 89 75 e0          	mov    %rsi,-0x20(%rbp)
  404673:	48 89 55 d8          	mov    %rdx,-0x28(%rbp)
      {
	if (__n == 0)
  404677:	48 83 7d d8 00       	cmpq   $0x0,-0x28(%rbp)
  40467c:	75 0a                	jne    404688 <_ZNSt11char_traitsIcE7compareEPKcS2_m+0x25>
	  return 0;
  40467e:	b8 00 00 00 00       	mov    $0x0,%eax
  404683:	e9 99 00 00 00       	jmp    404721 <_ZNSt11char_traitsIcE7compareEPKcS2_m+0xbe>
  404688:	b8 00 00 00 00       	mov    $0x0,%eax
#if __cplusplus >= 201703L
	if (std::__is_constant_evaluated())
  40468d:	84 c0                	test   %al,%al
  40468f:	74 78                	je     404709 <_ZNSt11char_traitsIcE7compareEPKcS2_m+0xa6>
	  {
	    for (size_t __i = 0; __i < __n; ++__i)
  404691:	48 c7 45 f8 00 00 00 	movq   $0x0,-0x8(%rbp)
  404698:	00
  404699:	eb 5d                	jmp    4046f8 <_ZNSt11char_traitsIcE7compareEPKcS2_m+0x95>
	      if (lt(__s1[__i], __s2[__i]))
  40469b:	48 8b 55 e0          	mov    -0x20(%rbp),%rdx
  40469f:	48 8b 45 f8          	mov    -0x8(%rbp),%rax
  4046a3:	48 01 c2             	add    %rax,%rdx
  4046a6:	48 8b 4d e8          	mov    -0x18(%rbp),%rcx
  4046aa:	48 8b 45 f8          	mov    -0x8(%rbp),%rax
  4046ae:	48 01 c8             	add    %rcx,%rax
  4046b1:	48 89 d6             	mov    %rdx,%rsi
  4046b4:	48 89 c7             	mov    %rax,%rdi
  4046b7:	e8 84 ff ff ff       	call   404640 <_ZNSt11char_traitsIcE2ltERKcS2_>
  4046bc:	84 c0                	test   %al,%al
  4046be:	74 07                	je     4046c7 <_ZNSt11char_traitsIcE7compareEPKcS2_m+0x64>
		return -1;
  4046c0:	b8 ff ff ff ff       	mov    $0xffffffff,%eax
  4046c5:	eb 5a                	jmp    404721 <_ZNSt11char_traitsIcE7compareEPKcS2_m+0xbe>
	      else if (lt(__s2[__i], __s1[__i]))
  4046c7:	48 8b 55 e8          	mov    -0x18(%rbp),%rdx
  4046cb:	48 8b 45 f8          	mov    -0x8(%rbp),%rax
  4046cf:	48 01 c2             	add    %rax,%rdx
  4046d2:	48 8b 4d e0          	mov    -0x20(%rbp),%rcx
  4046d6:	48 8b 45 f8          	mov    -0x8(%rbp),%rax
  4046da:	48 01 c8             	add    %rcx,%rax
  4046dd:	48 89 d6             	mov    %rdx,%rsi
  4046e0:	48 89 c7             	mov    %rax,%rdi
  4046e3:	e8 58 ff ff ff       	call   404640 <_ZNSt11char_traitsIcE2ltERKcS2_>
  4046e8:	84 c0                	test   %al,%al
  4046ea:	74 07                	je     4046f3 <_ZNSt11char_traitsIcE7compareEPKcS2_m+0x90>
		return 1;
  4046ec:	b8 01 00 00 00       	mov    $0x1,%eax
  4046f1:	eb 2e                	jmp    404721 <_ZNSt11char_traitsIcE7compareEPKcS2_m+0xbe>
	    for (size_t __i = 0; __i < __n; ++__i)
  4046f3:	48 83 45 f8 01       	addq   $0x1,-0x8(%rbp)
  4046f8:	48 8b 45 f8          	mov    -0x8(%rbp),%rax
  4046fc:	48 3b 45 d8          	cmp    -0x28(%rbp),%rax
  404700:	72 99                	jb     40469b <_ZNSt11char_traitsIcE7compareEPKcS2_m+0x38>
	    return 0;
  404702:	b8 00 00 00 00       	mov    $0x0,%eax
  404707:	eb 18                	jmp    404721 <_ZNSt11char_traitsIcE7compareEPKcS2_m+0xbe>
	  }
#endif
	return __builtin_memcmp(__s1, __s2, __n);
  404709:	48 8b 55 d8          	mov    -0x28(%rbp),%rdx
  40470d:	48 8b 4d e0          	mov    -0x20(%rbp),%rcx
  404711:	48 8b 45 e8          	mov    -0x18(%rbp),%rax
  404715:	48 89 ce             	mov    %rcx,%rsi
  404718:	48 89 c7             	mov    %rax,%rdi
  40471b:	e8 a0 f9 ff ff       	call   4040c0 <memcmp@plt>
  404720:	90                   	nop
      }
  404721:	c9                   	leave
  404722:	c3                   	ret

0000000000404723 <_ZNSt11char_traitsIcE6lengthEPKc>:

      static _GLIBCXX17_CONSTEXPR size_t
      length(const char_type* __s)
  404723:	55                   	push   %rbp
  404724:	48 89 e5             	mov    %rsp,%rbp
  404727:	48 83 ec 10          	sub    $0x10,%rsp
  40472b:	48 89 7d f8          	mov    %rdi,-0x8(%rbp)
  40472f:	b8 00 00 00 00       	mov    $0x0,%eax
      {
#if __cplusplus >= 201703L
	if (std::__is_constant_evaluated())
  404734:	84 c0                	test   %al,%al
  404736:	74 0e                	je     404746 <_ZNSt11char_traitsIcE6lengthEPKc+0x23>
	  return __gnu_cxx::char_traits<char_type>::length(__s);
  404738:	48 8b 45 f8          	mov    -0x8(%rbp),%rax
  40473c:	48 89 c7             	mov    %rax,%rdi
  40473f:	e8 52 10 00 00       	call   405796 <_ZN9__gnu_cxx11char_traitsIcE6lengthEPKc>
  404744:	eb 0d                	jmp    404753 <_ZNSt11char_traitsIcE6lengthEPKc+0x30>
#endif
	return __builtin_strlen(__s);
  404746:	48 8b 45 f8          	mov    -0x8(%rbp),%rax
  40474a:	48 89 c7             	mov    %rax,%rdi
  40474d:	e8 4e f9 ff ff       	call   4040a0 <strlen@plt>
  404752:	90                   	nop
      }
  404753:	c9                   	leave
  404754:	c3                   	ret

0000000000404755 <_ZNSt11char_traitsIcE4findEPKcmRS1_>:

      static _GLIBCXX17_CONSTEXPR const char_type*
      find(const char_type* __s, size_t __n, const char_type& __a)
  404755:	55                   	push   %rbp
  404756:	48 89 e5             	mov    %rsp,%rbp
  404759:	48 83 ec 20          	sub    $0x20,%rsp
  40475d:	48 89 7d f8          	mov    %rdi,-0x8(%rbp)
  404761:	48 89 75 f0          	mov    %rsi,-0x10(%rbp)
  404765:	48 89 55 e8          	mov    %rdx,-0x18(%rbp)
      {
	if (__n == 0)
  404769:	48 83 7d f0 00       	cmpq   $0x0,-0x10(%rbp)
  40476e:	75 07                	jne    404777 <_ZNSt11char_traitsIcE4findEPKcmRS1_+0x22>
	  return 0;
  404770:	b8 00 00 00 00       	mov    $0x0,%eax
  404775:	eb 3f                	jmp    4047b6 <_ZNSt11char_traitsIcE4findEPKcmRS1_+0x61>
  404777:	b8 00 00 00 00       	mov    $0x0,%eax
#if __cplusplus >= 201703L
	if (std::__is_constant_evaluated())
  40477c:	84 c0                	test   %al,%al
  40477e:	74 19                	je     404799 <_ZNSt11char_traitsIcE4findEPKcmRS1_+0x44>
	  return __gnu_cxx::char_traits<char_type>::find(__s, __n, __a);
  404780:	48 8b 55 e8          	mov    -0x18(%rbp),%rdx
  404784:	48 8b 4d f0          	mov    -0x10(%rbp),%rcx
  404788:	48 8b 45 f8          	mov    -0x8(%rbp),%rax
  40478c:	48 89 ce             	mov    %rcx,%rsi
  40478f:	48 89 c7             	mov    %rax,%rdi
  404792:	e8 7b 1f 00 00       	call   406712 <_ZN9__gnu_cxx11char_traitsIcE4findEPKcmRS2_>
  404797:	eb 1d                	jmp    4047b6 <_ZNSt11char_traitsIcE4findEPKcmRS1_+0x61>
#endif
	return static_cast<const char_type*>(__builtin_memchr(__s, __a, __n));
  404799:	48 8b 45 e8          	mov    -0x18(%rbp),%rax
  40479d:	0f b6 00             	movzbl (%rax),%eax
  4047a0:	0f be c8             	movsbl %al,%ecx
  4047a3:	48 8b 55 f0          	mov    -0x10(%rbp),%rdx
  4047a7:	48 8b 45 f8          	mov    -0x8(%rbp),%rax
  4047ab:	89 ce                	mov    %ecx,%esi
  4047ad:	48 89 c7             	mov    %rax,%rdi
  4047b0:	e8 ab fa ff ff       	call   404260 <memchr@plt>
  4047b5:	90                   	nop
      }
  4047b6:	c9                   	leave
  4047b7:	c3                   	ret

00000000004047b8 <_ZNSt11char_traitsIcE4moveEPcPKcm>:

      static _GLIBCXX20_CONSTEXPR char_type*
      move(char_type* __s1, const char_type* __s2, size_t __n)
  4047b8:	55                   	push   %rbp
  4047b9:	48 89 e5             	mov    %rsp,%rbp
  4047bc:	48 83 ec 20          	sub    $0x20,%rsp
  4047c0:	48 89 7d f8          	mov    %rdi,-0x8(%rbp)
  4047c4:	48 89 75 f0          	mov    %rsi,-0x10(%rbp)
  4047c8:	48 89 55 e8          	mov    %rdx,-0x18(%rbp)
      {
	if (__n == 0)
  4047cc:	48 83 7d e8 00       	cmpq   $0x0,-0x18(%rbp)
  4047d1:	75 06                	jne    4047d9 <_ZNSt11char_traitsIcE4moveEPcPKcm+0x21>
	  return __s1;
  4047d3:	48 8b 45 f8          	mov    -0x8(%rbp),%rax
  4047d7:	eb 3a                	jmp    404813 <_ZNSt11char_traitsIcE4moveEPcPKcm+0x5b>
  4047d9:	b8 00 00 00 00       	mov    $0x0,%eax
#if __cplusplus >= 202002L
	if (std::__is_constant_evaluated())
  4047de:	84 c0                	test   %al,%al
  4047e0:	74 19                	je     4047fb <_ZNSt11char_traitsIcE4moveEPcPKcm+0x43>
	  return __gnu_cxx::char_traits<char_type>::move(__s1, __s2, __n);
  4047e2:	48 8b 55 e8          	mov    -0x18(%rbp),%rdx
  4047e6:	48 8b 4d f0          	mov    -0x10(%rbp),%rcx
  4047ea:	48 8b 45 f8          	mov    -0x8(%rbp),%rax
  4047ee:	48 89 ce             	mov    %rcx,%rsi
  4047f1:	48 89 c7             	mov    %rax,%rdi
  4047f4:	e8 79 1f 00 00       	call   406772 <_ZN9__gnu_cxx11char_traitsIcE4moveEPcPKcm>
  4047f9:	eb 18                	jmp    404813 <_ZNSt11char_traitsIcE4moveEPcPKcm+0x5b>
#endif
	return static_cast<char_type*>(__builtin_memmove(__s1, __s2, __n));
  4047fb:	48 8b 55 e8          	mov    -0x18(%rbp),%rdx
  4047ff:	48 8b 4d f0          	mov    -0x10(%rbp),%rcx
  404803:	48 8b 45 f8          	mov    -0x8(%rbp),%rax
  404807:	48 89 ce             	mov    %rcx,%rsi
  40480a:	48 89 c7             	mov    %rax,%rdi
  40480d:	e8 1e fb ff ff       	call   404330 <memmove@plt>
  404812:	90                   	nop
      }
  404813:	c9                   	leave
  404814:	c3                   	ret

0000000000404815 <_ZNSt11char_traitsIcE4copyEPcPKcm>:

      static _GLIBCXX20_CONSTEXPR char_type*
      copy(char_type* __s1, const char_type* __s2, size_t __n)
  404815:	55                   	push   %rbp
  404816:	48 89 e5             	mov    %rsp,%rbp
  404819:	48 83 ec 20          	sub    $0x20,%rsp
  40481d:	48 89 7d f8          	mov    %rdi,-0x8(%rbp)
  404821:	48 89 75 f0          	mov    %rsi,-0x10(%rbp)
  404825:	48 89 55 e8          	mov    %rdx,-0x18(%rbp)
      {
	if (__n == 0)
  404829:	48 83 7d e8 00       	cmpq   $0x0,-0x18(%rbp)
  40482e:	75 06                	jne    404836 <_ZNSt11char_traitsIcE4copyEPcPKcm+0x21>
	  return __s1;
  404830:	48 8b 45 f8          	mov    -0x8(%rbp),%rax
  404834:	eb 40                	jmp    404876 <_ZNSt11char_traitsIcE4copyEPcPKcm+0x61>
  404836:	b8 00 00 00 00       	mov    $0x0,%eax
#if __cplusplus >= 202002L
	if (std::__is_constant_evaluated())
  40483b:	84 c0                	test   %al,%al
  40483d:	74 19                	je     404858 <_ZNSt11char_traitsIcE4copyEPcPKcm+0x43>
	  return __gnu_cxx::char_traits<char_type>::copy(__s1, __s2, __n);
  40483f:	48 8b 55 e8          	mov    -0x18(%rbp),%rdx
  404843:	48 8b 4d f0          	mov    -0x10(%rbp),%rcx
  404847:	48 8b 45 f8          	mov    -0x8(%rbp),%rax
  40484b:	48 89 ce             	mov    %rcx,%rsi
  40484e:	48 89 c7             	mov    %rax,%rdi
  404851:	e8 80 1f 00 00       	call   4067d6 <_ZN9__gnu_cxx11char_traitsIcE4copyEPcPKcm>
  404856:	eb 1e                	jmp    404876 <_ZNSt11char_traitsIcE4copyEPcPKcm+0x61>
#endif
	return static_cast<char_type*>(__builtin_memcpy(__s1, __s2, __n));
  404858:	48 8b 55 f8          	mov    -0x8(%rbp),%rdx
  40485c:	48 8b 45 f0          	mov    -0x10(%rbp),%rax
  404860:	48 89 d1             	mov    %rdx,%rcx
  404863:	48 89 c6             	mov    %rax,%rsi
  404866:	48 8b 45 e8          	mov    -0x18(%rbp),%rax
  40486a:	48 89 c2             	mov    %rax,%rdx
  40486d:	48 89 cf             	mov    %rcx,%rdi
  404870:	e8 5b f9 ff ff       	call   4041d0 <memcpy@plt>
  404875:	90                   	nop
      }
  404876:	c9                   	leave
  404877:	c3                   	ret

0000000000404878 <_ZNSt11char_traitsIcE6assignEPcmc>:

      static _GLIBCXX20_CONSTEXPR char_type*
      assign(char_type* __s, size_t __n, char_type __a)
  404878:	55                   	push   %rbp
  404879:	48 89 e5             	mov    %rsp,%rbp
  40487c:	48 83 ec 20          	sub    $0x20,%rsp
  404880:	48 89 7d f8          	mov    %rdi,-0x8(%rbp)
  404884:	48 89 75 f0          	mov    %rsi,-0x10(%rbp)
  404888:	89 d0                	mov    %edx,%eax
  40488a:	88 45 ec             	mov    %al,-0x14(%rbp)
      {
	if (__n == 0)
  40488d:	48 83 7d f0 00       	cmpq   $0x0,-0x10(%rbp)
  404892:	75 06                	jne    40489a <_ZNSt11char_traitsIcE6assignEPcmc+0x22>
	  return __s;
  404894:	48 8b 45 f8          	mov    -0x8(%rbp),%rax
  404898:	eb 39                	jmp    4048d3 <_ZNSt11char_traitsIcE6assignEPcmc+0x5b>
  40489a:	b8 00 00 00 00       	mov    $0x0,%eax
#if __cplusplus >= 202002L
	if (std::__is_constant_evaluated())
  40489f:	84 c0                	test   %al,%al
  4048a1:	74 19                	je     4048bc <_ZNSt11char_traitsIcE6assignEPcmc+0x44>
	  return __gnu_cxx::char_traits<char_type>::assign(__s, __n, __a);
  4048a3:	0f be 55 ec          	movsbl -0x14(%rbp),%edx
  4048a7:	48 8b 4d f0          	mov    -0x10(%rbp),%rcx
  4048ab:	48 8b 45 f8          	mov    -0x8(%rbp),%rax
  4048af:	48 89 ce             	mov    %rcx,%rsi
  4048b2:	48 89 c7             	mov    %rax,%rdi
  4048b5:	e8 aa 1f 00 00       	call   406864 <_ZN9__gnu_cxx11char_traitsIcE6assignEPcmc>
  4048ba:	eb 17                	jmp    4048d3 <_ZNSt11char_traitsIcE6assignEPcmc+0x5b>
#endif
	return static_cast<char_type*>(__builtin_memset(__s, __a, __n));
  4048bc:	0f be 4d ec          	movsbl -0x14(%rbp),%ecx
  4048c0:	48 8b 55 f0          	mov    -0x10(%rbp),%rdx
  4048c4:	48 8b 45 f8          	mov    -0x8(%rbp),%rax
  4048c8:	89 ce                	mov    %ecx,%esi
  4048ca:	48 89 c7             	mov    %rax,%rdi
  4048cd:	e8 2e f8 ff ff       	call   404100 <memset@plt>
  4048d2:	90                   	nop
      }
  4048d3:	c9                   	leave
  4048d4:	c3                   	ret

00000000004048d5 <_ZSt10__sv_checkmmPKc>:
_GLIBCXX_BEGIN_NAMESPACE_VERSION

  // Helper for basic_string and basic_string_view members.
  constexpr size_t
  __sv_check(size_t __size, size_t __pos, const char* __s)
  {
  4048d5:	55                   	push   %rbp
  4048d6:	48 89 e5             	mov    %rsp,%rbp
  4048d9:	48 83 ec 20          	sub    $0x20,%rsp
  4048dd:	48 89 7d f8          	mov    %rdi,-0x8(%rbp)
  4048e1:	48 89 75 f0          	mov    %rsi,-0x10(%rbp)
  4048e5:	48 89 55 e8          	mov    %rdx,-0x18(%rbp)
    if (__pos > __size)
  4048e9:	48 8b 45 f0          	mov    -0x10(%rbp),%rax
  4048ed:	48 39 45 f8          	cmp    %rax,-0x8(%rbp)
  4048f1:	73 1e                	jae    404911 <_ZSt10__sv_checkmmPKc+0x3c>
      __throw_out_of_range_fmt(__N("%s: __pos (which is %zu) > __size "
  4048f3:	48 8b 4d f8          	mov    -0x8(%rbp),%rcx
  4048f7:	48 8b 55 f0          	mov    -0x10(%rbp),%rdx
  4048fb:	48 8b 45 e8          	mov    -0x18(%rbp),%rax
  4048ff:	48 89 c6             	mov    %rax,%rsi
  404902:	bf 10 a0 41 00       	mov    $0x41a010,%edi
  404907:	b8 00 00 00 00       	mov    $0x0,%eax
  40490c:	e8 df f9 ff ff       	call   4042f0 <_ZSt24__throw_out_of_range_fmtPKcz@plt>
				   "(which is %zu)"), __s, __pos, __size);
    return __pos;
  404911:	48 8b 45 f0          	mov    -0x10(%rbp),%rax
  }
  404915:	c9                   	leave
  404916:	c3                   	ret
  404917:	90                   	nop

0000000000404918 <_ZNSt7__cxx1112basic_stringIcSt11char_traitsIcESaIcEE13_M_local_dataEv>:
      _M_data() const
      { return _M_dataplus._M_p; }

      _GLIBCXX20_CONSTEXPR
      pointer
      _M_local_data()
  404918:	55                   	push   %rbp
  404919:	48 89 e5             	mov    %rsp,%rbp
  40491c:	48 83 ec 10          	sub    $0x10,%rsp
  404920:	48 89 7d f8          	mov    %rdi,-0x8(%rbp)
      {
#if __cplusplus >= 201103L
	return std::pointer_traits<pointer>::pointer_to(*_M_local_buf);
  404924:	48 8b 45 f8          	mov    -0x8(%rbp),%rax
  404928:	48 83 c0 10          	add    $0x10,%rax
  40492c:	48 89 c7             	mov    %rax,%rdi
  40492f:	e8 02 00 00 00       	call   404936 <_ZNSt19__ptr_traits_ptr_toIPccLb0EE10pointer_toERc>
#else
	return pointer(_M_local_buf);
#endif
      }
  404934:	c9                   	leave
  404935:	c3                   	ret

0000000000404936 <_ZNSt19__ptr_traits_ptr_toIPccLb0EE10pointer_toERc>:
       *  @brief  Obtain a pointer to an object
       *  @param  __r  A reference to an object of type `element_type`
       *  @return `addressof(__r)`
      */
      static _GLIBCXX20_CONSTEXPR pointer
      pointer_to(element_type& __r) noexcept
  404936:	55                   	push   %rbp
  404937:	48 89 e5             	mov    %rsp,%rbp
  40493a:	48 83 ec 10          	sub    $0x10,%rsp
  40493e:	48 89 7d f8          	mov    %rdi,-0x8(%rbp)
      { return std::addressof(__r); }
  404942:	48 8b 45 f8          	mov    -0x8(%rbp),%rax
  404946:	48 89 c7             	mov    %rax,%rdi
  404949:	e8 02 00 00 00       	call   404950 <_ZSt9addressofIcEPT_RS0_>
  40494e:	c9                   	leave
  40494f:	c3                   	ret

0000000000404950 <_ZSt9addressofIcEPT_RS0_>:
   *  @return   The actual address.
  */
  template<typename _Tp>
    _GLIBCXX_NODISCARD
    inline _GLIBCXX17_CONSTEXPR _Tp*
    addressof(_Tp& __r) noexcept
  404950:	55                   	push   %rbp
  404951:	48 89 e5             	mov    %rsp,%rbp
  404954:	48 83 ec 10          	sub    $0x10,%rsp
  404958:	48 89 7d f8          	mov    %rdi,-0x8(%rbp)
    { return std::__addressof(__r); }
  40495c:	48 8b 45 f8          	mov    -0x8(%rbp),%rax
  404960:	48 89 c7             	mov    %rax,%rdi
  404963:	e8 02 00 00 00       	call   40496a <_ZSt11__addressofIcEPT_RS0_>
  404968:	c9                   	leave
  404969:	c3                   	ret

000000000040496a <_ZSt11__addressofIcEPT_RS0_>:
    __addressof(_Tp& __r) _GLIBCXX_NOEXCEPT
  40496a:	55                   	push   %rbp
  40496b:	48 89 e5             	mov    %rsp,%rbp
  40496e:	48 89 7d f8          	mov    %rdi,-0x8(%rbp)
    { return __builtin_addressof(__r); }
  404972:	48 8b 45 f8          	mov    -0x8(%rbp),%rax
  404976:	5d                   	pop    %rbp
  404977:	c3                   	ret

0000000000404978 <_ZNSt7__cxx1112basic_stringIcSt11char_traitsIcESaIcEE12_Alloc_hiderC1EPcOS3_>:
	_Alloc_hider(pointer __dat, _Alloc&& __a = _Alloc())
  404978:	55                   	push   %rbp
  404979:	48 89 e5             	mov    %rsp,%rbp
  40497c:	48 83 ec 40          	sub    $0x40,%rsp
  404980:	48 89 7d d8          	mov    %rdi,-0x28(%rbp)
  404984:	48 89 75 d0          	mov    %rsi,-0x30(%rbp)
  404988:	48 89 55 c8          	mov    %rdx,-0x38(%rbp)
	: allocator_type(std::move(__a)), _M_p(__dat) { }
  40498c:	48 8b 45 c8          	mov    -0x38(%rbp),%rax
  404990:	48 89 c7             	mov    %rax,%rdi
  404993:	e8 2c 00 00 00       	call   4049c4 <_ZSt4moveIRSaIcEEONSt16remove_referenceIT_E4typeEOS3_>
  404998:	48 8b 55 d8          	mov    -0x28(%rbp),%rdx
  40499c:	48 89 55 f8          	mov    %rdx,-0x8(%rbp)
  4049a0:	48 89 45 f0          	mov    %rax,-0x10(%rbp)
  4049a4:	48 8b 45 f8          	mov    -0x8(%rbp),%rax
  4049a8:	48 89 45 e8          	mov    %rax,-0x18(%rbp)
  4049ac:	48 8b 45 f0          	mov    -0x10(%rbp),%rax
  4049b0:	48 89 45 e0          	mov    %rax,-0x20(%rbp)

      __attribute__((__always_inline__))
      _GLIBCXX20_CONSTEXPR
      __new_allocator(const __new_allocator&) _GLIBCXX_USE_NOEXCEPT { }
  4049b4:	90                   	nop
      : __allocator_base<_Tp>(__a) { }
  4049b5:	90                   	nop
  4049b6:	48 8b 45 d8          	mov    -0x28(%rbp),%rax
  4049ba:	48 8b 55 d0          	mov    -0x30(%rbp),%rdx
  4049be:	48 89 10             	mov    %rdx,(%rax)
  4049c1:	90                   	nop
  4049c2:	c9                   	leave
  4049c3:	c3                   	ret

00000000004049c4 <_ZSt4moveIRSaIcEEONSt16remove_referenceIT_E4typeEOS3_>:
    move(_Tp&& __t) noexcept
  4049c4:	55                   	push   %rbp
  4049c5:	48 89 e5             	mov    %rsp,%rbp
  4049c8:	48 89 7d f8          	mov    %rdi,-0x8(%rbp)
    { return static_cast<typename std::remove_reference<_Tp>::type&&>(__t); }
  4049cc:	48 8b 45 f8          	mov    -0x8(%rbp),%rax
  4049d0:	5d                   	pop    %rbp
  4049d1:	c3                   	ret

00000000004049d2 <_ZNSt7__cxx1112basic_stringIcSt11char_traitsIcESaIcEE12_Alloc_hiderD1Ev>:
      struct _Alloc_hider : allocator_type // TODO check __is_final
  4049d2:	55                   	push   %rbp
  4049d3:	48 89 e5             	mov    %rsp,%rbp
  4049d6:	48 89 7d e8          	mov    %rdi,-0x18(%rbp)
  4049da:	48 8b 45 e8          	mov    -0x18(%rbp),%rax
  4049de:	48 89 45 f8          	mov    %rax,-0x8(%rbp)
      ~allocator() _GLIBCXX_NOTHROW { }
  4049e2:	90                   	nop
  4049e3:	90                   	nop
  4049e4:	5d                   	pop    %rbp
  4049e5:	c3                   	ret

00000000004049e6 <_ZNSt7__cxx1112basic_stringIcSt11char_traitsIcESaIcEEC1Ev>:

      /**
       *  @brief  Default constructor creates an empty string.
       */
      _GLIBCXX20_CONSTEXPR
      basic_string()
  4049e6:	55                   	push   %rbp
  4049e7:	48 89 e5             	mov    %rsp,%rbp
  4049ea:	53                   	push   %rbx
  4049eb:	48 83 ec 38          	sub    $0x38,%rsp
  4049ef:	48 89 7d c8          	mov    %rdi,-0x38(%rbp)
      _GLIBCXX_NOEXCEPT_IF(is_nothrow_default_constructible<_Alloc>::value)
      : _M_dataplus(_M_local_data())
  4049f3:	48 8b 5d c8          	mov    -0x38(%rbp),%rbx
  4049f7:	48 8d 45 d7          	lea    -0x29(%rbp),%rax
  4049fb:	48 89 45 d8          	mov    %rax,-0x28(%rbp)
      __new_allocator() _GLIBCXX_USE_NOEXCEPT { }
  4049ff:	90                   	nop
      allocator() _GLIBCXX_NOTHROW { }
  404a00:	90                   	nop
  404a01:	48 8b 45 c8          	mov    -0x38(%rbp),%rax
  404a05:	48 89 c7             	mov    %rax,%rdi
  404a08:	e8 0b ff ff ff       	call   404918 <_ZNSt7__cxx1112basic_stringIcSt11char_traitsIcESaIcEE13_M_local_dataEv>
  404a0d:	48 89 c1             	mov    %rax,%rcx
  404a10:	48 8d 45 d7          	lea    -0x29(%rbp),%rax
  404a14:	48 89 c2             	mov    %rax,%rdx
  404a17:	48 89 ce             	mov    %rcx,%rsi
  404a1a:	48 89 df             	mov    %rbx,%rdi
  404a1d:	e8 56 ff ff ff       	call   404978 <_ZNSt7__cxx1112basic_stringIcSt11char_traitsIcESaIcEE12_Alloc_hiderC1EPcOS3_>
      ~allocator() _GLIBCXX_NOTHROW { }
  404a22:	90                   	nop
  404a23:	48 8b 45 c8          	mov    -0x38(%rbp),%rax
  404a27:	48 89 45 e8          	mov    %rax,-0x18(%rbp)
	if (std::is_constant_evaluated())
  404a2b:	e8 0b fb ff ff       	call   40453b <_ZSt21is_constant_evaluatedv>
  404a30:	84 c0                	test   %al,%al
  404a32:	74 28                	je     404a5c <_ZNSt7__cxx1112basic_stringIcSt11char_traitsIcESaIcEEC1Ev+0x76>
	  for (size_type __i = 0; __i <= _S_local_capacity; ++__i)
  404a34:	48 c7 45 e0 00 00 00 	movq   $0x0,-0x20(%rbp)
  404a3b:	00
  404a3c:	eb 17                	jmp    404a55 <_ZNSt7__cxx1112basic_stringIcSt11char_traitsIcESaIcEEC1Ev+0x6f>
	    _M_local_buf[__i] = _CharT();
  404a3e:	48 8b 55 e8          	mov    -0x18(%rbp),%rdx
  404a42:	48 8b 45 e0          	mov    -0x20(%rbp),%rax
  404a46:	48 01 d0             	add    %rdx,%rax
  404a49:	48 83 c0 10          	add    $0x10,%rax
  404a4d:	c6 00 00             	movb   $0x0,(%rax)
	  for (size_type __i = 0; __i <= _S_local_capacity; ++__i)
  404a50:	48 83 45 e0 01       	addq   $0x1,-0x20(%rbp)
  404a55:	48 83 7d e0 0f       	cmpq   $0xf,-0x20(%rbp)
  404a5a:	76 e2                	jbe    404a3e <_ZNSt7__cxx1112basic_stringIcSt11char_traitsIcESaIcEEC1Ev+0x58>
      }
  404a5c:	90                   	nop
      {
	_M_init_local_buf();
	_M_set_length(0);
  404a5d:	48 8b 45 c8          	mov    -0x38(%rbp),%rax
  404a61:	be 00 00 00 00       	mov    $0x0,%esi
  404a66:	48 89 c7             	mov    %rax,%rdi
  404a69:	e8 c8 1e 00 00       	call   406936 <_ZNSt7__cxx1112basic_stringIcSt11char_traitsIcESaIcEE13_M_set_lengthEm>
      }
  404a6e:	90                   	nop
  404a6f:	48 8b 5d f8          	mov    -0x8(%rbp),%rbx
  404a73:	c9                   	leave
  404a74:	c3                   	ret

0000000000404a75 <_ZNSt8__detail14__to_chars_lenIjEEjT_i>:
#endif

  // Generic implementation for arbitrary bases.
  template<typename _Tp>
    _GLIBCXX14_CONSTEXPR unsigned
    __to_chars_len(_Tp __value, int __base = 10) noexcept
  404a75:	55                   	push   %rbp
  404a76:	48 89 e5             	mov    %rsp,%rbp
  404a79:	89 7d dc             	mov    %edi,-0x24(%rbp)
  404a7c:	89 75 d8             	mov    %esi,-0x28(%rbp)
    {
#if __cpp_variable_templates
      static_assert(__integer_to_chars_is_unsigned<_Tp>, "implementation bug");
#endif

      unsigned __n = 1;
  404a7f:	c7 45 fc 01 00 00 00 	movl   $0x1,-0x4(%rbp)
      const unsigned __b2 = __base  * __base;
  404a86:	8b 45 d8             	mov    -0x28(%rbp),%eax
  404a89:	0f af c0             	imul   %eax,%eax
  404a8c:	89 45 f8             	mov    %eax,-0x8(%rbp)
      const unsigned __b3 = __b2 * __base;
  404a8f:	8b 45 d8             	mov    -0x28(%rbp),%eax
  404a92:	8b 55 f8             	mov    -0x8(%rbp),%edx
  404a95:	0f af c2             	imul   %edx,%eax
  404a98:	89 45 f4             	mov    %eax,-0xc(%rbp)
      const unsigned long __b4 = __b3 * __base;
  404a9b:	8b 45 d8             	mov    -0x28(%rbp),%eax
  404a9e:	0f af 45 f4          	imul   -0xc(%rbp),%eax
  404aa2:	89 c0                	mov    %eax,%eax
  404aa4:	48 89 45 e8          	mov    %rax,-0x18(%rbp)
      for (;;)
	{
	  if (__value < (unsigned)__base) return __n;
  404aa8:	8b 45 d8             	mov    -0x28(%rbp),%eax
  404aab:	39 45 dc             	cmp    %eax,-0x24(%rbp)
  404aae:	73 05                	jae    404ab5 <_ZNSt8__detail14__to_chars_lenIjEEjT_i+0x40>
  404ab0:	8b 45 fc             	mov    -0x4(%rbp),%eax
  404ab3:	eb 46                	jmp    404afb <_ZNSt8__detail14__to_chars_lenIjEEjT_i+0x86>
	  if (__value < __b2) return __n + 1;
  404ab5:	8b 45 dc             	mov    -0x24(%rbp),%eax
  404ab8:	3b 45 f8             	cmp    -0x8(%rbp),%eax
  404abb:	73 08                	jae    404ac5 <_ZNSt8__detail14__to_chars_lenIjEEjT_i+0x50>
  404abd:	8b 45 fc             	mov    -0x4(%rbp),%eax
  404ac0:	83 c0 01             	add    $0x1,%eax
  404ac3:	eb 36                	jmp    404afb <_ZNSt8__detail14__to_chars_lenIjEEjT_i+0x86>
	  if (__value < __b3) return __n + 2;
  404ac5:	8b 45 dc             	mov    -0x24(%rbp),%eax
  404ac8:	3b 45 f4             	cmp    -0xc(%rbp),%eax
  404acb:	73 08                	jae    404ad5 <_ZNSt8__detail14__to_chars_lenIjEEjT_i+0x60>
  404acd:	8b 45 fc             	mov    -0x4(%rbp),%eax
  404ad0:	83 c0 02             	add    $0x2,%eax
  404ad3:	eb 26                	jmp    404afb <_ZNSt8__detail14__to_chars_lenIjEEjT_i+0x86>
	  if (__value < __b4) return __n + 3;
  404ad5:	8b 45 dc             	mov    -0x24(%rbp),%eax
  404ad8:	48 3b 45 e8          	cmp    -0x18(%rbp),%rax
  404adc:	73 08                	jae    404ae6 <_ZNSt8__detail14__to_chars_lenIjEEjT_i+0x71>
  404ade:	8b 45 fc             	mov    -0x4(%rbp),%eax
  404ae1:	83 c0 03             	add    $0x3,%eax
  404ae4:	eb 15                	jmp    404afb <_ZNSt8__detail14__to_chars_lenIjEEjT_i+0x86>
	  __value /= __b4;
  404ae6:	8b 45 dc             	mov    -0x24(%rbp),%eax
  404ae9:	ba 00 00 00 00       	mov    $0x0,%edx
  404aee:	48 f7 75 e8          	divq   -0x18(%rbp)
  404af2:	89 45 dc             	mov    %eax,-0x24(%rbp)
	  __n += 4;
  404af5:	83 45 fc 04          	addl   $0x4,-0x4(%rbp)
	  if (__value < (unsigned)__base) return __n;
  404af9:	eb ad                	jmp    404aa8 <_ZNSt8__detail14__to_chars_lenIjEEjT_i+0x33>
	}
    }
  404afb:	5d                   	pop    %rbp
  404afc:	c3                   	ret

0000000000404afd <_ZNSt8__detail14__to_chars_lenImEEjT_i>:
    __to_chars_len(_Tp __value, int __base = 10) noexcept
  404afd:	55                   	push   %rbp
  404afe:	48 89 e5             	mov    %rsp,%rbp
  404b01:	48 89 7d d8          	mov    %rdi,-0x28(%rbp)
  404b05:	89 75 d4             	mov    %esi,-0x2c(%rbp)
      unsigned __n = 1;
  404b08:	c7 45 fc 01 00 00 00 	movl   $0x1,-0x4(%rbp)
      const unsigned __b2 = __base  * __base;
  404b0f:	8b 45 d4             	mov    -0x2c(%rbp),%eax
  404b12:	0f af c0             	imul   %eax,%eax
  404b15:	89 45 f8             	mov    %eax,-0x8(%rbp)
      const unsigned __b3 = __b2 * __base;
  404b18:	8b 45 d4             	mov    -0x2c(%rbp),%eax
  404b1b:	8b 55 f8             	mov    -0x8(%rbp),%edx
  404b1e:	0f af c2             	imul   %edx,%eax
  404b21:	89 45 f4             	mov    %eax,-0xc(%rbp)
      const unsigned long __b4 = __b3 * __base;
  404b24:	8b 45 d4             	mov    -0x2c(%rbp),%eax
  404b27:	0f af 45 f4          	imul   -0xc(%rbp),%eax
  404b2b:	89 c0                	mov    %eax,%eax
  404b2d:	48 89 45 e8          	mov    %rax,-0x18(%rbp)
	  if (__value < (unsigned)__base) return __n;
  404b31:	8b 45 d4             	mov    -0x2c(%rbp),%eax
  404b34:	89 c0                	mov    %eax,%eax
  404b36:	48 39 45 d8          	cmp    %rax,-0x28(%rbp)
  404b3a:	73 05                	jae    404b41 <_ZNSt8__detail14__to_chars_lenImEEjT_i+0x44>
  404b3c:	8b 45 fc             	mov    -0x4(%rbp),%eax
  404b3f:	eb 4b                	jmp    404b8c <_ZNSt8__detail14__to_chars_lenImEEjT_i+0x8f>
	  if (__value < __b2) return __n + 1;
  404b41:	8b 45 f8             	mov    -0x8(%rbp),%eax
  404b44:	48 39 45 d8          	cmp    %rax,-0x28(%rbp)
  404b48:	73 08                	jae    404b52 <_ZNSt8__detail14__to_chars_lenImEEjT_i+0x55>
  404b4a:	8b 45 fc             	mov    -0x4(%rbp),%eax
  404b4d:	83 c0 01             	add    $0x1,%eax
  404b50:	eb 3a                	jmp    404b8c <_ZNSt8__detail14__to_chars_lenImEEjT_i+0x8f>
	  if (__value < __b3) return __n + 2;
  404b52:	8b 45 f4             	mov    -0xc(%rbp),%eax
  404b55:	48 39 45 d8          	cmp    %rax,-0x28(%rbp)
  404b59:	73 08                	jae    404b63 <_ZNSt8__detail14__to_chars_lenImEEjT_i+0x66>
  404b5b:	8b 45 fc             	mov    -0x4(%rbp),%eax
  404b5e:	83 c0 02             	add    $0x2,%eax
  404b61:	eb 29                	jmp    404b8c <_ZNSt8__detail14__to_chars_lenImEEjT_i+0x8f>
	  if (__value < __b4) return __n + 3;
  404b63:	48 8b 45 d8          	mov    -0x28(%rbp),%rax
  404b67:	48 3b 45 e8          	cmp    -0x18(%rbp),%rax
  404b6b:	73 08                	jae    404b75 <_ZNSt8__detail14__to_chars_lenImEEjT_i+0x78>
  404b6d:	8b 45 fc             	mov    -0x4(%rbp),%eax
  404b70:	83 c0 03             	add    $0x3,%eax
  404b73:	eb 17                	jmp    404b8c <_ZNSt8__detail14__to_chars_lenImEEjT_i+0x8f>
	  __value /= __b4;
  404b75:	48 8b 45 d8          	mov    -0x28(%rbp),%rax
  404b79:	ba 00 00 00 00       	mov    $0x0,%edx
  404b7e:	48 f7 75 e8          	divq   -0x18(%rbp)
  404b82:	48 89 45 d8          	mov    %rax,-0x28(%rbp)
	  __n += 4;
  404b86:	83 45 fc 04          	addl   $0x4,-0x4(%rbp)
	  if (__value < (unsigned)__base) return __n;
  404b8a:	eb a5                	jmp    404b31 <_ZNSt8__detail14__to_chars_lenImEEjT_i+0x34>
    }
  404b8c:	5d                   	pop    %rbp
  404b8d:	c3                   	ret

0000000000404b8e <_ZNSt8__detail14__to_chars_lenIyEEjT_i>:
    __to_chars_len(_Tp __value, int __base = 10) noexcept
  404b8e:	55                   	push   %rbp
  404b8f:	48 89 e5             	mov    %rsp,%rbp
  404b92:	48 89 7d d8          	mov    %rdi,-0x28(%rbp)
  404b96:	89 75 d4             	mov    %esi,-0x2c(%rbp)
      unsigned __n = 1;
  404b99:	c7 45 fc 01 00 00 00 	movl   $0x1,-0x4(%rbp)
      const unsigned __b2 = __base  * __base;
  404ba0:	8b 45 d4             	mov    -0x2c(%rbp),%eax
  404ba3:	0f af c0             	imul   %eax,%eax
  404ba6:	89 45 f8             	mov    %eax,-0x8(%rbp)
      const unsigned __b3 = __b2 * __base;
  404ba9:	8b 45 d4             	mov    -0x2c(%rbp),%eax
  404bac:	8b 55 f8             	mov    -0x8(%rbp),%edx
  404baf:	0f af c2             	imul   %edx,%eax
  404bb2:	89 45 f4             	mov    %eax,-0xc(%rbp)
      const unsigned long __b4 = __b3 * __base;
  404bb5:	8b 45 d4             	mov    -0x2c(%rbp),%eax
  404bb8:	0f af 45 f4          	imul   -0xc(%rbp),%eax
  404bbc:	89 c0                	mov    %eax,%eax
  404bbe:	48 89 45 e8          	mov    %rax,-0x18(%rbp)
	  if (__value < (unsigned)__base) return __n;
  404bc2:	8b 45 d4             	mov    -0x2c(%rbp),%eax
  404bc5:	89 c0                	mov    %eax,%eax
  404bc7:	48 39 45 d8          	cmp    %rax,-0x28(%rbp)
  404bcb:	73 05                	jae    404bd2 <_ZNSt8__detail14__to_chars_lenIyEEjT_i+0x44>
  404bcd:	8b 45 fc             	mov    -0x4(%rbp),%eax
  404bd0:	eb 4b                	jmp    404c1d <_ZNSt8__detail14__to_chars_lenIyEEjT_i+0x8f>
	  if (__value < __b2) return __n + 1;
  404bd2:	8b 45 f8             	mov    -0x8(%rbp),%eax
  404bd5:	48 39 45 d8          	cmp    %rax,-0x28(%rbp)
  404bd9:	73 08                	jae    404be3 <_ZNSt8__detail14__to_chars_lenIyEEjT_i+0x55>
  404bdb:	8b 45 fc             	mov    -0x4(%rbp),%eax
  404bde:	83 c0 01             	add    $0x1,%eax
  404be1:	eb 3a                	jmp    404c1d <_ZNSt8__detail14__to_chars_lenIyEEjT_i+0x8f>
	  if (__value < __b3) return __n + 2;
  404be3:	8b 45 f4             	mov    -0xc(%rbp),%eax
  404be6:	48 39 45 d8          	cmp    %rax,-0x28(%rbp)
  404bea:	73 08                	jae    404bf4 <_ZNSt8__detail14__to_chars_lenIyEEjT_i+0x66>
  404bec:	8b 45 fc             	mov    -0x4(%rbp),%eax
  404bef:	83 c0 02             	add    $0x2,%eax
  404bf2:	eb 29                	jmp    404c1d <_ZNSt8__detail14__to_chars_lenIyEEjT_i+0x8f>
	  if (__value < __b4) return __n + 3;
  404bf4:	48 8b 45 d8          	mov    -0x28(%rbp),%rax
  404bf8:	48 3b 45 e8          	cmp    -0x18(%rbp),%rax
  404bfc:	73 08                	jae    404c06 <_ZNSt8__detail14__to_chars_lenIyEEjT_i+0x78>
  404bfe:	8b 45 fc             	mov    -0x4(%rbp),%eax
  404c01:	83 c0 03             	add    $0x3,%eax
  404c04:	eb 17                	jmp    404c1d <_ZNSt8__detail14__to_chars_lenIyEEjT_i+0x8f>
	  __value /= __b4;
  404c06:	48 8b 45 d8          	mov    -0x28(%rbp),%rax
  404c0a:	ba 00 00 00 00       	mov    $0x0,%edx
  404c0f:	48 f7 75 e8          	divq   -0x18(%rbp)
  404c13:	48 89 45 d8          	mov    %rax,-0x28(%rbp)
	  __n += 4;
  404c17:	83 45 fc 04          	addl   $0x4,-0x4(%rbp)
	  if (__value < (unsigned)__base) return __n;
  404c1b:	eb a5                	jmp    404bc2 <_ZNSt8__detail14__to_chars_lenIyEEjT_i+0x34>
    }
  404c1d:	5d                   	pop    %rbp
  404c1e:	c3                   	ret
  404c1f:	90                   	nop

0000000000404c20 <_ZNKSt7__cxx1112basic_stringIcSt11char_traitsIcESaIcEE4sizeEv>:
      // Capacity:
      ///  Returns the number of characters in the string, not including any
      ///  null-termination.
      _GLIBCXX_NODISCARD _GLIBCXX20_CONSTEXPR
      size_type
      size() const _GLIBCXX_NOEXCEPT
  404c20:	55                   	push   %rbp
  404c21:	48 89 e5             	mov    %rsp,%rbp
  404c24:	48 89 7d f8          	mov    %rdi,-0x8(%rbp)
      { return _M_string_length; }
  404c28:	48 8b 45 f8          	mov    -0x8(%rbp),%rax
  404c2c:	48 8b 40 08          	mov    0x8(%rax),%rax
  404c30:	5d                   	pop    %rbp
  404c31:	c3                   	ret

0000000000404c32 <_ZNSt8__detail16__extent_storageILm18446744073709551615EEC1Em>:
    template<>
      class __extent_storage<dynamic_extent>
      {
      public:
	constexpr
	__extent_storage(size_t __extent) noexcept
  404c32:	55                   	push   %rbp
  404c33:	48 89 e5             	mov    %rsp,%rbp
  404c36:	48 89 7d f8          	mov    %rdi,-0x8(%rbp)
  404c3a:	48 89 75 f0          	mov    %rsi,-0x10(%rbp)
	: _M_extent_value(__extent)
  404c3e:	48 8b 45 f8          	mov    -0x8(%rbp),%rax
  404c42:	48 8b 55 f0          	mov    -0x10(%rbp),%rdx
  404c46:	48 89 10             	mov    %rdx,(%rax)
	{ }
  404c49:	90                   	nop
  404c4a:	5d                   	pop    %rbp
  404c4b:	c3                   	ret

0000000000404c4c <_ZNKSt8__detail16__extent_storageILm18446744073709551615EE9_M_extentEv>:

	constexpr size_t
	_M_extent() const noexcept
  404c4c:	55                   	push   %rbp
  404c4d:	48 89 e5             	mov    %rsp,%rbp
  404c50:	48 89 7d f8          	mov    %rdi,-0x8(%rbp)
	{ return this->_M_extent_value; }
  404c54:	48 8b 45 f8          	mov    -0x8(%rbp),%rax
  404c58:	48 8b 00             	mov    (%rax),%rax
  404c5b:	5d                   	pop    %rbp
  404c5c:	c3                   	ret

0000000000404c5d <_ZNSt9__unicode17__is_scalar_valueEDi>:
namespace __unicode
{
  // A Unicode code point that is not a high or low surrogate.
  constexpr bool
  __is_scalar_value(char32_t __c)
  {
  404c5d:	55                   	push   %rbp
  404c5e:	48 89 e5             	mov    %rsp,%rbp
  404c61:	89 7d fc             	mov    %edi,-0x4(%rbp)
    if (__c < 0xD800) [[likely]]
  404c64:	81 7d fc ff d7 00 00 	cmpl   $0xd7ff,-0x4(%rbp)
  404c6b:	77 07                	ja     404c74 <_ZNSt9__unicode17__is_scalar_valueEDi+0x17>
      return true;
  404c6d:	b8 01 00 00 00       	mov    $0x1,%eax
  404c72:	eb 1f                	jmp    404c93 <_ZNSt9__unicode17__is_scalar_valueEDi+0x36>
    return 0xDFFF < __c && __c <= 0x10FFFF;
  404c74:	81 7d fc ff df 00 00 	cmpl   $0xdfff,-0x4(%rbp)
  404c7b:	76 10                	jbe    404c8d <_ZNSt9__unicode17__is_scalar_valueEDi+0x30>
  404c7d:	81 7d fc ff ff 10 00 	cmpl   $0x10ffff,-0x4(%rbp)
  404c84:	77 07                	ja     404c8d <_ZNSt9__unicode17__is_scalar_valueEDi+0x30>
  404c86:	b8 01 00 00 00       	mov    $0x1,%eax
  404c8b:	eb 05                	jmp    404c92 <_ZNSt9__unicode17__is_scalar_valueEDi+0x35>
  404c8d:	b8 00 00 00 00       	mov    $0x0,%eax
  404c92:	90                   	nop
  }
  404c93:	5d                   	pop    %rbp
  404c94:	c3                   	ret
  404c95:	90                   	nop

0000000000404c96 <_ZNKSt9__unicode5_ReplclEv>:
  // Based on https://www.open-std.org/jtc1/sc22/wg21/docs/papers/2023/p2728r6.html#add-the-transcoding-iterator-template

  struct _Repl
  {
    constexpr char32_t
    operator()() const noexcept
  404c96:	55                   	push   %rbp
  404c97:	48 89 e5             	mov    %rsp,%rbp
  404c9a:	48 89 7d f8          	mov    %rdi,-0x8(%rbp)
    { return 0xFFFD; }
  404c9e:	b8 fd ff 00 00       	mov    $0xfffd,%eax
  404ca3:	5d                   	pop    %rbp
  404ca4:	c3                   	ret

0000000000404ca5 <_ZNSt9__unicode9__v15_1_013__field_widthEDi>:
#endif

  // The field width of a code point.
  constexpr int
  __field_width(char32_t __c) noexcept
  {
  404ca5:	55                   	push   %rbp
  404ca6:	48 89 e5             	mov    %rsp,%rbp
  404ca9:	48 83 ec 20          	sub    $0x20,%rsp
  404cad:	89 7d ec             	mov    %edi,-0x14(%rbp)
    if (__c < __width_edges[0]) [[likely]]
  404cb0:	ba 00 11 00 00       	mov    $0x1100,%edx
  404cb5:	8b 45 ec             	mov    -0x14(%rbp),%eax
  404cb8:	39 d0                	cmp    %edx,%eax
  404cba:	73 07                	jae    404cc3 <_ZNSt9__unicode9__v15_1_013__field_widthEDi+0x1e>
      return 1;
  404cbc:	b8 01 00 00 00       	mov    $0x1,%eax
  404cc1:	eb 48                	jmp    404d0b <_ZNSt9__unicode9__v15_1_013__field_widthEDi+0x66>
   */
  template<typename _Tp, size_t _Nm>
    [[__nodiscard__, __gnu__::__always_inline__]]
    inline _GLIBCXX14_CONSTEXPR _Tp*
    end(_Tp (&__arr)[_Nm]) noexcept
    { return __arr + _Nm; }
  404cc3:	b9 60 a8 41 00       	mov    $0x41a860,%ecx

    auto* __p = std::upper_bound(__width_edges, std::end(__width_edges), __c);
  404cc8:	48 8d 45 ec          	lea    -0x14(%rbp),%rax
  404ccc:	48 89 c2             	mov    %rax,%rdx
  404ccf:	48 89 ce             	mov    %rcx,%rsi
  404cd2:	bf 40 a5 41 00       	mov    $0x41a540,%edi
  404cd7:	e8 9f 27 00 00       	call   40747b <_ZSt11upper_boundIPKDiDiET_S2_S2_RKT0_>
  404cdc:	48 89 45 f8          	mov    %rax,-0x8(%rbp)
    return (__p - __width_edges) % 2 + 1;
  404ce0:	48 8b 45 f8          	mov    -0x8(%rbp),%rax
  404ce4:	48 2d 40 a5 41 00    	sub    $0x41a540,%rax
  404cea:	48 c1 f8 02          	sar    $0x2,%rax
  404cee:	48 89 c2             	mov    %rax,%rdx
  404cf1:	48 89 d0             	mov    %rdx,%rax
  404cf4:	48 c1 f8 3f          	sar    $0x3f,%rax
  404cf8:	48 c1 e8 3f          	shr    $0x3f,%rax
  404cfc:	48 01 c2             	add    %rax,%rdx
  404cff:	83 e2 01             	and    $0x1,%edx
  404d02:	48 29 c2             	sub    %rax,%rdx
  404d05:	48 89 d0             	mov    %rdx,%rax
  404d08:	83 c0 01             	add    $0x1,%eax
  }
  404d0b:	c9                   	leave
  404d0c:	c3                   	ret

0000000000404d0d <_ZNSt9__unicode9__v15_1_033__grapheme_cluster_break_propertyEDi>:

  // @pre c <= 0x10FFFF
  constexpr _Gcb_property
  __grapheme_cluster_break_property(char32_t __c) noexcept
  {
  404d0d:	55                   	push   %rbp
  404d0e:	48 89 e5             	mov    %rsp,%rbp
  404d11:	48 83 ec 30          	sub    $0x30,%rsp
  404d15:	89 7d dc             	mov    %edi,-0x24(%rbp)
    constexpr uint32_t __mask = (1 << __gcb_shift_bits) - 1;
  404d18:	c7 45 fc 0f 00 00 00 	movl   $0xf,-0x4(%rbp)
  404d1f:	b8 f0 c2 41 00       	mov    $0x41c2f0,%eax
    auto* __end = std::end(__gcb_edges);
  404d24:	48 89 45 f0          	mov    %rax,-0x10(%rbp)
    auto* __p = std::lower_bound(__gcb_edges, __end,
				 (__c << __gcb_shift_bits) | __mask);
  404d28:	8b 45 dc             	mov    -0x24(%rbp),%eax
  404d2b:	c1 e0 04             	shl    $0x4,%eax
  404d2e:	83 c8 0f             	or     $0xf,%eax
  404d31:	89 45 e4             	mov    %eax,-0x1c(%rbp)
    auto* __p = std::lower_bound(__gcb_edges, __end,
  404d34:	48 8d 55 e4          	lea    -0x1c(%rbp),%rdx
  404d38:	48 8b 45 f0          	mov    -0x10(%rbp),%rax
  404d3c:	48 89 c6             	mov    %rax,%rsi
  404d3f:	bf 60 a8 41 00       	mov    $0x41a860,%edi
  404d44:	e8 64 27 00 00       	call   4074ad <_ZSt11lower_boundIPKjjET_S2_S2_RKT0_>
  404d49:	48 89 45 e8          	mov    %rax,-0x18(%rbp)
    return _Gcb_property(__p[-1] & __mask);
  404d4d:	48 8b 45 e8          	mov    -0x18(%rbp),%rax
  404d51:	48 83 e8 04          	sub    $0x4,%rax
  404d55:	8b 00                	mov    (%rax),%eax
  404d57:	83 e0 0f             	and    $0xf,%eax
  }
  404d5a:	c9                   	leave
  404d5b:	c3                   	ret

0000000000404d5c <_ZNSt9__unicode9__v15_1_016__is_incb_linkerEDi>:

  constexpr bool
  __is_incb_linker(char32_t __c) noexcept
  {
  404d5c:	55                   	push   %rbp
  404d5d:	48 89 e5             	mov    %rsp,%rbp
  404d60:	48 83 ec 20          	sub    $0x20,%rsp
  404d64:	89 7d ec             	mov    %edi,-0x14(%rbp)
  404d67:	b8 08 c3 41 00       	mov    $0x41c308,%eax
    const auto __end = std::end(__incb_linkers);
  404d6c:	48 89 45 f8          	mov    %rax,-0x8(%rbp)
    // Array is small enough that linear search is faster than binary search.
    return std::find(__incb_linkers, __end, __c) != __end;
  404d70:	48 8d 55 ec          	lea    -0x14(%rbp),%rdx
  404d74:	48 8b 45 f8          	mov    -0x8(%rbp),%rax
  404d78:	48 89 c6             	mov    %rax,%rsi
  404d7b:	bf f0 c2 41 00       	mov    $0x41c2f0,%edi
  404d80:	e8 5a 27 00 00       	call   4074df <_ZSt4findIPKDiDiET_S2_S2_RKT0_>
  404d85:	48 39 45 f8          	cmp    %rax,-0x8(%rbp)
  404d89:	0f 95 c0             	setne  %al
  }
  404d8c:	c9                   	leave
  404d8d:	c3                   	ret

0000000000404d8e <_ZNSt9__unicode9__v15_1_015__incb_propertyEDi>:

  // @pre c <= 0x10FFFF
  constexpr _InCB
  __incb_property(char32_t __c) noexcept
  {
  404d8e:	55                   	push   %rbp
  404d8f:	48 89 e5             	mov    %rsp,%rbp
  404d92:	48 83 ec 30          	sub    $0x30,%rsp
  404d96:	89 7d dc             	mov    %edi,-0x24(%rbp)
    if ((__c << 2) < __incb_edges[0]) [[likely]]
  404d99:	8b 45 dc             	mov    -0x24(%rbp),%eax
  404d9c:	c1 e0 02             	shl    $0x2,%eax
  404d9f:	ba 02 0c 00 00       	mov    $0xc02,%edx
  404da4:	39 d0                	cmp    %edx,%eax
  404da6:	73 07                	jae    404daf <_ZNSt9__unicode9__v15_1_015__incb_propertyEDi+0x21>
      return _InCB(0);
  404da8:	b8 00 00 00 00       	mov    $0x0,%eax
  404dad:	eb 42                	jmp    404df1 <_ZNSt9__unicode9__v15_1_015__incb_propertyEDi+0x63>

    constexpr uint32_t __mask = 0x3;
  404daf:	c7 45 fc 03 00 00 00 	movl   $0x3,-0x4(%rbp)
  404db6:	b8 34 c9 41 00       	mov    $0x41c934,%eax
    auto* __end = std::end(__incb_edges);
  404dbb:	48 89 45 f0          	mov    %rax,-0x10(%rbp)
    auto* __p = std::lower_bound(__incb_edges, __end, (__c << 2) | __mask);
  404dbf:	8b 45 dc             	mov    -0x24(%rbp),%eax
  404dc2:	c1 e0 02             	shl    $0x2,%eax
  404dc5:	83 c8 03             	or     $0x3,%eax
  404dc8:	89 45 e4             	mov    %eax,-0x1c(%rbp)
  404dcb:	48 8d 55 e4          	lea    -0x1c(%rbp),%rdx
  404dcf:	48 8b 45 f0          	mov    -0x10(%rbp),%rax
  404dd3:	48 89 c6             	mov    %rax,%rsi
  404dd6:	bf 20 c3 41 00       	mov    $0x41c320,%edi
  404ddb:	e8 cd 26 00 00       	call   4074ad <_ZSt11lower_boundIPKjjET_S2_S2_RKT0_>
  404de0:	48 89 45 e8          	mov    %rax,-0x18(%rbp)
    return _InCB(__p[-1] & __mask);
  404de4:	48 8b 45 e8          	mov    -0x18(%rbp),%rax
  404de8:	48 83 e8 04          	sub    $0x4,%rax
  404dec:	8b 00                	mov    (%rax),%eax
  404dee:	83 e0 03             	and    $0x3,%eax
  }
  404df1:	c9                   	leave
  404df2:	c3                   	ret

0000000000404df3 <_ZNSt9__unicode9__v15_1_026__is_extended_pictographicEDi>:

  constexpr bool
  __is_extended_pictographic(char32_t __c)
  {
  404df3:	55                   	push   %rbp
  404df4:	48 89 e5             	mov    %rsp,%rbp
  404df7:	48 83 ec 20          	sub    $0x20,%rsp
  404dfb:	89 7d ec             	mov    %edi,-0x14(%rbp)
    if (__c < __xpicto_edges[0]) [[likely]]
  404dfe:	ba a9 00 00 00       	mov    $0xa9,%edx
  404e03:	8b 45 ec             	mov    -0x14(%rbp),%eax
  404e06:	39 d0                	cmp    %edx,%eax
  404e08:	73 07                	jae    404e11 <_ZNSt9__unicode9__v15_1_026__is_extended_pictographicEDi+0x1e>
      return 0;
  404e0a:	b8 00 00 00 00       	mov    $0x0,%eax
  404e0f:	eb 34                	jmp    404e45 <_ZNSt9__unicode9__v15_1_026__is_extended_pictographicEDi+0x52>
  404e11:	b9 b0 cb 41 00       	mov    $0x41cbb0,%ecx

    auto* __p = std::upper_bound(__xpicto_edges, std::end(__xpicto_edges), __c);
  404e16:	48 8d 45 ec          	lea    -0x14(%rbp),%rax
  404e1a:	48 89 c2             	mov    %rax,%rdx
  404e1d:	48 89 ce             	mov    %rcx,%rsi
  404e20:	bf 40 c9 41 00       	mov    $0x41c940,%edi
  404e25:	e8 51 26 00 00       	call   40747b <_ZSt11upper_boundIPKDiDiET_S2_S2_RKT0_>
  404e2a:	48 89 45 f8          	mov    %rax,-0x8(%rbp)
    return (__p - __xpicto_edges) % 2;
  404e2e:	48 8b 45 f8          	mov    -0x8(%rbp),%rax
  404e32:	48 2d 40 c9 41 00    	sub    $0x41c940,%rax
  404e38:	48 c1 f8 02          	sar    $0x2,%rax
  404e3c:	83 e0 01             	and    $0x1,%eax
  404e3f:	48 85 c0             	test   %rax,%rax
  404e42:	0f 95 c0             	setne  %al
  }
  404e45:	c9                   	leave
  404e46:	c3                   	ret
  404e47:	90                   	nop

0000000000404e48 <_ZNSt9__unicode9__v15_1_031_Grapheme_cluster_iterator_base8_M_resetEDiNS0_13_Gcb_propertyE>:
    _XPicto _M_xpicto_seq_state = _XPicto::_Init;
    unsigned char _M_RI_count = 0;
    bool _M_incb_linker_seen = false;

    constexpr void
    _M_reset(char32_t __c, _Gcb_property __p)
  404e48:	55                   	push   %rbp
  404e49:	48 89 e5             	mov    %rsp,%rbp
  404e4c:	48 89 7d f8          	mov    %rdi,-0x8(%rbp)
  404e50:	89 75 f4             	mov    %esi,-0xc(%rbp)
  404e53:	89 55 f0             	mov    %edx,-0x10(%rbp)
    {
      _M_c = __c;
  404e56:	48 8b 45 f8          	mov    -0x8(%rbp),%rax
  404e5a:	8b 55 f4             	mov    -0xc(%rbp),%edx
  404e5d:	89 10                	mov    %edx,(%rax)
      _M_prop = __p;
  404e5f:	48 8b 45 f8          	mov    -0x8(%rbp),%rax
  404e63:	8b 55 f0             	mov    -0x10(%rbp),%edx
  404e66:	89 50 04             	mov    %edx,0x4(%rax)
      _M_xpicto_seq_state = _XPicto::_Init;
  404e69:	48 8b 45 f8          	mov    -0x8(%rbp),%rax
  404e6d:	c6 40 08 00          	movb   $0x0,0x8(%rax)
      _M_RI_count = 0;
  404e71:	48 8b 45 f8          	mov    -0x8(%rbp),%rax
  404e75:	c6 40 09 00          	movb   $0x0,0x9(%rax)
      _M_incb_linker_seen = false;
  404e79:	48 8b 45 f8          	mov    -0x8(%rbp),%rax
  404e7d:	c6 40 0a 00          	movb   $0x0,0xa(%rax)
    }
  404e81:	90                   	nop
  404e82:	5d                   	pop    %rbp
  404e83:	c3                   	ret

0000000000404e84 <_ZNSt9__unicode9__v15_1_031_Grapheme_cluster_iterator_base26_M_update_xpicto_seq_stateEDiNS0_13_Gcb_propertyE>:

    constexpr void
    _M_update_xpicto_seq_state(char32_t __c, _Gcb_property __p)
  404e84:	55                   	push   %rbp
  404e85:	48 89 e5             	mov    %rsp,%rbp
  404e88:	48 83 ec 20          	sub    $0x20,%rsp
  404e8c:	48 89 7d e8          	mov    %rdi,-0x18(%rbp)
  404e90:	89 75 e4             	mov    %esi,-0x1c(%rbp)
  404e93:	89 55 e0             	mov    %edx,-0x20(%rbp)
    {
      if (_M_xpicto_seq_state == _XPicto::_Failed)
  404e96:	48 8b 45 e8          	mov    -0x18(%rbp),%rax
  404e9a:	0f b6 40 08          	movzbl 0x8(%rax),%eax
  404e9e:	3c 03                	cmp    $0x3,%al
  404ea0:	0f 84 87 00 00 00    	je     404f2d <_ZNSt9__unicode9__v15_1_031_Grapheme_cluster_iterator_base26_M_update_xpicto_seq_stateEDiNS0_13_Gcb_propertyE+0xa9>
	return;

      auto __next_state = _XPicto::_Failed;
  404ea6:	c6 45 ff 03          	movb   $0x3,-0x1(%rbp)
      if (_M_xpicto_seq_state != _XPicto::_Zwj) // i.e. Init or Matched
  404eaa:	48 8b 45 e8          	mov    -0x18(%rbp),%rax
  404eae:	0f b6 40 08          	movzbl 0x8(%rax),%eax
  404eb2:	3c 01                	cmp    $0x1,%al
  404eb4:	74 42                	je     404ef8 <_ZNSt9__unicode9__v15_1_031_Grapheme_cluster_iterator_base26_M_update_xpicto_seq_stateEDiNS0_13_Gcb_propertyE+0x74>
	{
	  if (__p == _Gcb_property::_Gcb_ZWJ)
  404eb6:	83 7d e0 0a          	cmpl   $0xa,-0x20(%rbp)
  404eba:	75 29                	jne    404ee5 <_ZNSt9__unicode9__v15_1_031_Grapheme_cluster_iterator_base26_M_update_xpicto_seq_stateEDiNS0_13_Gcb_propertyE+0x61>
	    {
	      if (_M_xpicto_seq_state == _XPicto::_Matched)
  404ebc:	48 8b 45 e8          	mov    -0x18(%rbp),%rax
  404ec0:	0f b6 40 08          	movzbl 0x8(%rax),%eax
  404ec4:	3c 02                	cmp    $0x2,%al
  404ec6:	75 06                	jne    404ece <_ZNSt9__unicode9__v15_1_031_Grapheme_cluster_iterator_base26_M_update_xpicto_seq_stateEDiNS0_13_Gcb_propertyE+0x4a>
		__next_state = _XPicto::_Zwj;
  404ec8:	c6 45 ff 01          	movb   $0x1,-0x1(%rbp)
  404ecc:	eb 52                	jmp    404f20 <_ZNSt9__unicode9__v15_1_031_Grapheme_cluster_iterator_base26_M_update_xpicto_seq_stateEDiNS0_13_Gcb_propertyE+0x9c>
	      // We check _M_c here so that we do the lookup at most once,
	      // and only for clusters containing at least one ZWJ.
	      else if (__is_extended_pictographic(_M_c))
  404ece:	48 8b 45 e8          	mov    -0x18(%rbp),%rax
  404ed2:	8b 00                	mov    (%rax),%eax
  404ed4:	89 c7                	mov    %eax,%edi
  404ed6:	e8 18 ff ff ff       	call   404df3 <_ZNSt9__unicode9__v15_1_026__is_extended_pictographicEDi>
  404edb:	84 c0                	test   %al,%al
  404edd:	74 41                	je     404f20 <_ZNSt9__unicode9__v15_1_031_Grapheme_cluster_iterator_base26_M_update_xpicto_seq_stateEDiNS0_13_Gcb_propertyE+0x9c>
		__next_state = _XPicto::_Zwj;
  404edf:	c6 45 ff 01          	movb   $0x1,-0x1(%rbp)
  404ee3:	eb 3b                	jmp    404f20 <_ZNSt9__unicode9__v15_1_031_Grapheme_cluster_iterator_base26_M_update_xpicto_seq_stateEDiNS0_13_Gcb_propertyE+0x9c>
	    }
	  else if (__p == _Gcb_property::_Gcb_Extend)
  404ee5:	83 7d e0 04          	cmpl   $0x4,-0x20(%rbp)
  404ee9:	75 35                	jne    404f20 <_ZNSt9__unicode9__v15_1_031_Grapheme_cluster_iterator_base26_M_update_xpicto_seq_stateEDiNS0_13_Gcb_propertyE+0x9c>
	    __next_state = _M_xpicto_seq_state; // no change
  404eeb:	48 8b 45 e8          	mov    -0x18(%rbp),%rax
  404eef:	0f b6 40 08          	movzbl 0x8(%rax),%eax
  404ef3:	88 45 ff             	mov    %al,-0x1(%rbp)
  404ef6:	eb 28                	jmp    404f20 <_ZNSt9__unicode9__v15_1_031_Grapheme_cluster_iterator_base26_M_update_xpicto_seq_stateEDiNS0_13_Gcb_propertyE+0x9c>
      else // Zwj
	{
	  // This assumes that all \p{Extended_Pictographic} emoji have
	  // Grapheme_Cluster_Break=Other.
	  if (__p == _Gcb_property::_Gcb_Other
		&& __is_extended_pictographic(__c))
  404ef8:	83 7d e0 00          	cmpl   $0x0,-0x20(%rbp)
  404efc:	75 15                	jne    404f13 <_ZNSt9__unicode9__v15_1_031_Grapheme_cluster_iterator_base26_M_update_xpicto_seq_stateEDiNS0_13_Gcb_propertyE+0x8f>
  404efe:	8b 45 e4             	mov    -0x1c(%rbp),%eax
  404f01:	89 c7                	mov    %eax,%edi
  404f03:	e8 eb fe ff ff       	call   404df3 <_ZNSt9__unicode9__v15_1_026__is_extended_pictographicEDi>
  404f08:	84 c0                	test   %al,%al
  404f0a:	74 07                	je     404f13 <_ZNSt9__unicode9__v15_1_031_Grapheme_cluster_iterator_base26_M_update_xpicto_seq_stateEDiNS0_13_Gcb_propertyE+0x8f>
  404f0c:	b8 01 00 00 00       	mov    $0x1,%eax
  404f11:	eb 05                	jmp    404f18 <_ZNSt9__unicode9__v15_1_031_Grapheme_cluster_iterator_base26_M_update_xpicto_seq_stateEDiNS0_13_Gcb_propertyE+0x94>
  404f13:	b8 00 00 00 00       	mov    $0x0,%eax
	  if (__p == _Gcb_property::_Gcb_Other
  404f18:	84 c0                	test   %al,%al
  404f1a:	74 04                	je     404f20 <_ZNSt9__unicode9__v15_1_031_Grapheme_cluster_iterator_base26_M_update_xpicto_seq_stateEDiNS0_13_Gcb_propertyE+0x9c>
	    __next_state = _XPicto::_Matched;
  404f1c:	c6 45 ff 02          	movb   $0x2,-0x1(%rbp)
	}
      _M_xpicto_seq_state = __next_state;
  404f20:	48 8b 45 e8          	mov    -0x18(%rbp),%rax
  404f24:	0f b6 55 ff          	movzbl -0x1(%rbp),%edx
  404f28:	88 50 08             	mov    %dl,0x8(%rax)
  404f2b:	eb 01                	jmp    404f2e <_ZNSt9__unicode9__v15_1_031_Grapheme_cluster_iterator_base26_M_update_xpicto_seq_stateEDiNS0_13_Gcb_propertyE+0xaa>
	return;
  404f2d:	90                   	nop
    }
  404f2e:	c9                   	leave
  404f2f:	c3                   	ret

0000000000404f30 <_ZNSt9__unicode9__v15_1_031_Grapheme_cluster_iterator_base18_M_update_ri_countENS0_13_Gcb_propertyE>:

    constexpr void
    _M_update_ri_count(_Gcb_property __p)
  404f30:	55                   	push   %rbp
  404f31:	48 89 e5             	mov    %rsp,%rbp
  404f34:	48 89 7d f8          	mov    %rdi,-0x8(%rbp)
  404f38:	89 75 f4             	mov    %esi,-0xc(%rbp)
    {
      if (__p == _Gcb_property::_Gcb_Regional_Indicator)
  404f3b:	83 7d f4 0d          	cmpl   $0xd,-0xc(%rbp)
  404f3f:	75 14                	jne    404f55 <_ZNSt9__unicode9__v15_1_031_Grapheme_cluster_iterator_base18_M_update_ri_countENS0_13_Gcb_propertyE+0x25>
	++_M_RI_count;
  404f41:	48 8b 45 f8          	mov    -0x8(%rbp),%rax
  404f45:	0f b6 40 09          	movzbl 0x9(%rax),%eax
  404f49:	8d 50 01             	lea    0x1(%rax),%edx
  404f4c:	48 8b 45 f8          	mov    -0x8(%rbp),%rax
  404f50:	88 50 09             	mov    %dl,0x9(%rax)
      else
	_M_RI_count = 0;
    }
  404f53:	eb 08                	jmp    404f5d <_ZNSt9__unicode9__v15_1_031_Grapheme_cluster_iterator_base18_M_update_ri_countENS0_13_Gcb_propertyE+0x2d>
	_M_RI_count = 0;
  404f55:	48 8b 45 f8          	mov    -0x8(%rbp),%rax
  404f59:	c6 40 09 00          	movb   $0x0,0x9(%rax)
    }
  404f5d:	90                   	nop
  404f5e:	5d                   	pop    %rbp
  404f5f:	c3                   	ret

0000000000404f60 <_ZNSt9__unicode9__v15_1_031_Grapheme_cluster_iterator_base20_M_update_incb_stateEDiNS0_13_Gcb_propertyE>:

    constexpr void
    _M_update_incb_state(char32_t __c, _Gcb_property)
  404f60:	55                   	push   %rbp
  404f61:	48 89 e5             	mov    %rsp,%rbp
  404f64:	48 83 ec 10          	sub    $0x10,%rsp
  404f68:	48 89 7d f8          	mov    %rdi,-0x8(%rbp)
  404f6c:	89 75 f4             	mov    %esi,-0xc(%rbp)
  404f6f:	89 55 f0             	mov    %edx,-0x10(%rbp)
    {
      if (__is_incb_linker(__c))
  404f72:	8b 45 f4             	mov    -0xc(%rbp),%eax
  404f75:	89 c7                	mov    %eax,%edi
  404f77:	e8 e0 fd ff ff       	call   404d5c <_ZNSt9__unicode9__v15_1_016__is_incb_linkerEDi>
  404f7c:	84 c0                	test   %al,%al
  404f7e:	74 08                	je     404f88 <_ZNSt9__unicode9__v15_1_031_Grapheme_cluster_iterator_base20_M_update_incb_stateEDiNS0_13_Gcb_propertyE+0x28>
	_M_incb_linker_seen = true;
  404f80:	48 8b 45 f8          	mov    -0x8(%rbp),%rax
  404f84:	c6 40 0a 01          	movb   $0x1,0xa(%rax)
    }
  404f88:	90                   	nop
  404f89:	c9                   	leave
  404f8a:	c3                   	ret

0000000000404f8b <_ZNSt8__detail25__from_chars_alnum_to_valILb0EEEhh>:
  // return its corresponding base-10 value, otherwise return a value >= 127.
  // If _DecOnly is false: if the character is an alphanumeric digit, then
  // return its corresponding base-36 value, otherwise return a value >= 127.
  template<bool _DecOnly = false>
    _GLIBCXX20_CONSTEXPR unsigned char
    __from_chars_alnum_to_val(unsigned char __c)
  404f8b:	55                   	push   %rbp
  404f8c:	48 89 e5             	mov    %rsp,%rbp
  404f8f:	89 f8                	mov    %edi,%eax
  404f91:	88 45 fc             	mov    %al,-0x4(%rbp)
    {
      if _GLIBCXX17_CONSTEXPR (_DecOnly)
	return static_cast<unsigned char>(__c - '0');
      else
	return __from_chars_alnum_to_val_table<_DecOnly>::value.__data[__c];
  404f94:	0f b6 45 fc          	movzbl -0x4(%rbp),%eax
  404f98:	48 98                	cltq
  404f9a:	0f b6 80 c0 cb 41 00 	movzbl 0x41cbc0(%rax),%eax
    }
  404fa1:	5d                   	pop    %rbp
  404fa2:	c3                   	ret
  404fa3:	90                   	nop

0000000000404fa4 <_ZNSt12format_errorC1EPKc>:
  // [format.error], class format_error
  class format_error : public runtime_error
  {
  public:
    explicit format_error(const string& __what) : runtime_error(__what) { }
    explicit format_error(const char* __what) : runtime_error(__what) { }
  404fa4:	55                   	push   %rbp
  404fa5:	48 89 e5             	mov    %rsp,%rbp
  404fa8:	48 83 ec 10          	sub    $0x10,%rsp
  404fac:	48 89 7d f8          	mov    %rdi,-0x8(%rbp)
  404fb0:	48 89 75 f0          	mov    %rsi,-0x10(%rbp)
  404fb4:	48 8b 45 f8          	mov    -0x8(%rbp),%rax
  404fb8:	48 8b 55 f0          	mov    -0x10(%rbp),%rdx
  404fbc:	48 89 d6             	mov    %rdx,%rsi
  404fbf:	48 89 c7             	mov    %rax,%rdi
  404fc2:	e8 d9 f3 ff ff       	call   4043a0 <_ZNSt13runtime_errorC2EPKc@plt>
  404fc7:	ba 58 ce 41 00       	mov    $0x41ce58,%edx
  404fcc:	48 8b 45 f8          	mov    -0x8(%rbp),%rax
  404fd0:	48 89 10             	mov    %rdx,(%rax)
  404fd3:	90                   	nop
  404fd4:	c9                   	leave
  404fd5:	c3                   	ret

0000000000404fd6 <_ZNSt12format_errorD1Ev>:
  class format_error : public runtime_error
  404fd6:	55                   	push   %rbp
  404fd7:	48 89 e5             	mov    %rsp,%rbp
  404fda:	48 83 ec 10          	sub    $0x10,%rsp
  404fde:	48 89 7d f8          	mov    %rdi,-0x8(%rbp)
  404fe2:	ba 58 ce 41 00       	mov    $0x41ce58,%edx
  404fe7:	48 8b 45 f8          	mov    -0x8(%rbp),%rax
  404feb:	48 89 10             	mov    %rdx,(%rax)
  404fee:	48 8b 45 f8          	mov    -0x8(%rbp),%rax
  404ff2:	48 89 c7             	mov    %rax,%rdi
  404ff5:	e8 56 f2 ff ff       	call   404250 <_ZNSt13runtime_errorD2Ev@plt>
  404ffa:	90                   	nop
  404ffb:	c9                   	leave
  404ffc:	c3                   	ret
  404ffd:	90                   	nop

0000000000404ffe <_ZNSt12format_errorD0Ev>:
  404ffe:	55                   	push   %rbp
  404fff:	48 89 e5             	mov    %rsp,%rbp
  405002:	48 83 ec 10          	sub    $0x10,%rsp
  405006:	48 89 7d f8          	mov    %rdi,-0x8(%rbp)
  40500a:	48 8b 45 f8          	mov    -0x8(%rbp),%rax
  40500e:	48 89 c7             	mov    %rax,%rdi
  405011:	e8 c0 ff ff ff       	call   404fd6 <_ZNSt12format_errorD1Ev>
  405016:	48 8b 45 f8          	mov    -0x8(%rbp),%rax
  40501a:	be 10 00 00 00       	mov    $0x10,%esi
  40501f:	48 89 c7             	mov    %rax,%rdi
  405022:	e8 09 f2 ff ff       	call   404230 <_ZdlPvm@plt>
  405027:	c9                   	leave
  405028:	c3                   	ret

0000000000405029 <_ZSt20__throw_format_errorPKc>:

  /// @cond undocumented
  [[noreturn]]
  inline void
  __throw_format_error(const char* __what)
  { _GLIBCXX_THROW_OR_ABORT(format_error(__what)); }
  405029:	55                   	push   %rbp
  40502a:	48 89 e5             	mov    %rsp,%rbp
  40502d:	41 54                	push   %r12
  40502f:	53                   	push   %rbx
  405030:	48 83 ec 10          	sub    $0x10,%rsp
  405034:	48 89 7d e8          	mov    %rdi,-0x18(%rbp)
  405038:	bf 10 00 00 00       	mov    $0x10,%edi
  40503d:	e8 8e f0 ff ff       	call   4040d0 <__cxa_allocate_exception@plt>
  405042:	48 89 c3             	mov    %rax,%rbx
  405045:	48 8b 45 e8          	mov    -0x18(%rbp),%rax
  405049:	48 89 c6             	mov    %rax,%rsi
  40504c:	48 89 df             	mov    %rbx,%rdi
  40504f:	e8 50 ff ff ff       	call   404fa4 <_ZNSt12format_errorC1EPKc>
  405054:	ba d6 4f 40 00       	mov    $0x404fd6,%edx
  405059:	be 38 d0 41 00       	mov    $0x41d038,%esi
  40505e:	48 89 df             	mov    %rbx,%rdi
  405061:	e8 fa f2 ff ff       	call   404360 <__cxa_throw@plt>
  405066:	49 89 c4             	mov    %rax,%r12
  405069:	48 89 df             	mov    %rbx,%rdi
  40506c:	e8 1f f1 ff ff       	call   404190 <__cxa_free_exception@plt>
  405071:	4c 89 e0             	mov    %r12,%rax
  405074:	48 89 c7             	mov    %rax,%rdi
  405077:	e8 f4 f2 ff ff       	call   404370 <_Unwind_Resume@plt>

000000000040507c <_ZNSt8__format39__unmatched_left_brace_in_format_stringEv>:
  // XXX use named functions for each constexpr error?

  [[noreturn]]
  inline void
  __unmatched_left_brace_in_format_string()
  { __throw_format_error("format error: unmatched '{' in format string"); }
  40507c:	55                   	push   %rbp
  40507d:	48 89 e5             	mov    %rsp,%rbp
  405080:	bf 48 a0 41 00       	mov    $0x41a048,%edi
  405085:	e8 9f ff ff ff       	call   405029 <_ZSt20__throw_format_errorPKc>

000000000040508a <_ZNSt8__format40__unmatched_right_brace_in_format_stringEv>:

  [[noreturn]]
  inline void
  __unmatched_right_brace_in_format_string()
  { __throw_format_error("format error: unmatched '}' in format string"); }
  40508a:	55                   	push   %rbp
  40508b:	48 89 e5             	mov    %rsp,%rbp
  40508e:	bf 78 a0 41 00       	mov    $0x41a078,%edi
  405093:	e8 91 ff ff ff       	call   405029 <_ZSt20__throw_format_errorPKc>

0000000000405098 <_ZNSt8__format39__conflicting_indexing_in_format_stringEv>:

  [[noreturn]]
  inline void
  __conflicting_indexing_in_format_string()
  { __throw_format_error("format error: conflicting indexing style in format string"); }
  405098:	55                   	push   %rbp
  405099:	48 89 e5             	mov    %rsp,%rbp
  40509c:	bf a8 a0 41 00       	mov    $0x41a0a8,%edi
  4050a1:	e8 83 ff ff ff       	call   405029 <_ZSt20__throw_format_errorPKc>

00000000004050a6 <_ZNSt8__format33__invalid_arg_id_in_format_stringEv>:

  [[noreturn]]
  inline void
  __invalid_arg_id_in_format_string()
  { __throw_format_error("format error: invalid arg-id in format string"); }
  4050a6:	55                   	push   %rbp
  4050a7:	48 89 e5             	mov    %rsp,%rbp
  4050aa:	bf e8 a0 41 00       	mov    $0x41a0e8,%edi
  4050af:	e8 75 ff ff ff       	call   405029 <_ZSt20__throw_format_errorPKc>

00000000004050b4 <_ZNSt8__format29__failed_to_parse_format_specEv>:

  [[noreturn]]
  inline void
  __failed_to_parse_format_spec()
  { __throw_format_error("format error: failed to parse format-spec"); }
  4050b4:	55                   	push   %rbp
  4050b5:	48 89 e5             	mov    %rsp,%rbp
  4050b8:	bf 18 a1 41 00       	mov    $0x41a118,%edi
  4050bd:	e8 67 ff ff ff       	call   405029 <_ZSt20__throw_format_errorPKc>

00000000004050c2 <_ZNSt8__format10__is_digitEc>:
  template<typename _Context>
    size_t
    __int_from_arg(const basic_format_arg<_Context>& __arg);

  constexpr bool __is_digit(char __c)
  { return std::__detail::__from_chars_alnum_to_val(__c) < 10; }
  4050c2:	55                   	push   %rbp
  4050c3:	48 89 e5             	mov    %rsp,%rbp
  4050c6:	48 83 ec 10          	sub    $0x10,%rsp
  4050ca:	89 f8                	mov    %edi,%eax
  4050cc:	88 45 fc             	mov    %al,-0x4(%rbp)
  4050cf:	0f b6 45 fc          	movzbl -0x4(%rbp),%eax
  4050d3:	0f b6 c0             	movzbl %al,%eax
  4050d6:	89 c7                	mov    %eax,%edi
  4050d8:	e8 ae fe ff ff       	call   404f8b <_ZNSt8__detail25__from_chars_alnum_to_valILb0EEEhh>
  4050dd:	3c 09                	cmp    $0x9,%al
  4050df:	0f 96 c0             	setbe  %al
  4050e2:	c9                   	leave
  4050e3:	c3                   	ret

00000000004050e4 <_ZNSt8__format11__is_xdigitEc>:

  constexpr bool __is_xdigit(char __c)
  { return std::__detail::__from_chars_alnum_to_val(__c) < 16; }
  4050e4:	55                   	push   %rbp
  4050e5:	48 89 e5             	mov    %rsp,%rbp
  4050e8:	48 83 ec 10          	sub    $0x10,%rsp
  4050ec:	89 f8                	mov    %edi,%eax
  4050ee:	88 45 fc             	mov    %al,-0x4(%rbp)
  4050f1:	0f b6 45 fc          	movzbl -0x4(%rbp),%eax
  4050f5:	0f b6 c0             	movzbl %al,%eax
  4050f8:	89 c7                	mov    %eax,%edi
  4050fa:	e8 8c fe ff ff       	call   404f8b <_ZNSt8__detail25__from_chars_alnum_to_valILb0EEEhh>
  4050ff:	3c 0f                	cmp    $0xf,%al
  405101:	0f 96 c0             	setbe  %al
  405104:	c9                   	leave
  405105:	c3                   	ret

0000000000405106 <_ZNSt8__format16_Optional_localeC1ERKSt6locale>:
  struct _Optional_locale
  {
    [[__gnu__::__always_inline__]]
    _Optional_locale() : _M_dummy(), _M_hasval(false) { }

    _Optional_locale(const locale& __loc) noexcept
  405106:	55                   	push   %rbp
  405107:	48 89 e5             	mov    %rsp,%rbp
  40510a:	48 83 ec 10          	sub    $0x10,%rsp
  40510e:	48 89 7d f8          	mov    %rdi,-0x8(%rbp)
  405112:	48 89 75 f0          	mov    %rsi,-0x10(%rbp)
    : _M_loc(__loc), _M_hasval(true)
  405116:	48 8b 45 f8          	mov    -0x8(%rbp),%rax
  40511a:	48 8b 55 f0          	mov    -0x10(%rbp),%rdx
  40511e:	48 89 d6             	mov    %rdx,%rsi
  405121:	48 89 c7             	mov    %rax,%rdi
  405124:	e8 37 f0 ff ff       	call   404160 <_ZNSt6localeC1ERKS_@plt>
  405129:	48 8b 45 f8          	mov    -0x8(%rbp),%rax
  40512d:	c6 40 08 01          	movb   $0x1,0x8(%rax)
    { }
  405131:	90                   	nop
  405132:	c9                   	leave
  405133:	c3                   	ret

0000000000405134 <_ZNSt8__format16_Optional_localeD1Ev>:
	  _M_hasval = true;
	}
      return *this;
    }

    ~_Optional_locale() { if (_M_hasval) _M_loc.~locale(); }
  405134:	55                   	push   %rbp
  405135:	48 89 e5             	mov    %rsp,%rbp
  405138:	48 83 ec 10          	sub    $0x10,%rsp
  40513c:	48 89 7d f8          	mov    %rdi,-0x8(%rbp)
  405140:	48 8b 45 f8          	mov    -0x8(%rbp),%rax
  405144:	0f b6 40 08          	movzbl 0x8(%rax),%eax
  405148:	84 c0                	test   %al,%al
  40514a:	74 0c                	je     405158 <_ZNSt8__format16_Optional_localeD1Ev+0x24>
  40514c:	48 8b 45 f8          	mov    -0x8(%rbp),%rax
  405150:	48 89 c7             	mov    %rax,%rdi
  405153:	e8 78 f1 ff ff       	call   4042d0 <_ZNSt6localeD1Ev@plt>
  405158:	90                   	nop
  405159:	c9                   	leave
  40515a:	c3                   	ret
  40515b:	90                   	nop

000000000040515c <_ZNSt8__format16_Optional_locale5valueEv>:
	}
      return *this;
    }

    const locale&
    value() noexcept
  40515c:	55                   	push   %rbp
  40515d:	48 89 e5             	mov    %rsp,%rbp
  405160:	48 83 ec 10          	sub    $0x10,%rsp
  405164:	48 89 7d f8          	mov    %rdi,-0x8(%rbp)
    {
      if (!_M_hasval)
  405168:	48 8b 45 f8          	mov    -0x8(%rbp),%rax
  40516c:	0f b6 40 08          	movzbl 0x8(%rax),%eax
  405170:	83 f0 01             	xor    $0x1,%eax
  405173:	84 c0                	test   %al,%al
  405175:	74 14                	je     40518b <_ZNSt8__format16_Optional_locale5valueEv+0x2f>
	{
	  std::construct_at(&_M_loc);
  405177:	48 8b 45 f8          	mov    -0x8(%rbp),%rax
  40517b:	48 89 c7             	mov    %rax,%rdi
  40517e:	e8 94 23 00 00       	call   407517 <_ZSt12construct_atISt6localeJEEDTgsnwcvPvLi0E_T_pispcl7declvalIT0_EEEEPS2_DpOS3_>
	  _M_hasval = true;
  405183:	48 8b 45 f8          	mov    -0x8(%rbp),%rax
  405187:	c6 40 08 01          	movb   $0x1,0x8(%rax)
	}
      return _M_loc;
  40518b:	48 8b 45 f8          	mov    -0x8(%rbp),%rax
    }
  40518f:	c9                   	leave
  405190:	c3                   	ret
  405191:	90                   	nop

0000000000405192 <_ZNSt8__format9_Seq_sinkINSt7__cxx1112basic_stringIcSt11char_traitsIcESaIcEEEED1Ev>:
  using _GLIBCXX_STD_C::vector;

  // A sink that fills a sequence (e.g. std::string, std::vector, std::deque).
  // Writes to a buffer then appends that to the sequence when it fills up.
  template<typename _Seq>
    class _Seq_sink final : public _Buf_sink<typename _Seq::value_type>
  405192:	55                   	push   %rbp
  405193:	48 89 e5             	mov    %rsp,%rbp
  405196:	48 83 ec 10          	sub    $0x10,%rsp
  40519a:	48 89 7d f8          	mov    %rdi,-0x8(%rbp)
  40519e:	ba e0 cd 41 00       	mov    $0x41cde0,%edx
  4051a3:	48 8b 45 f8          	mov    -0x8(%rbp),%rax
  4051a7:	48 89 10             	mov    %rdx,(%rax)
  4051aa:	48 8b 45 f8          	mov    -0x8(%rbp),%rax
  4051ae:	48 05 20 01 00 00    	add    $0x120,%rax
  4051b4:	48 89 c7             	mov    %rax,%rdi
  4051b7:	e8 c6 17 00 00       	call   406982 <_ZNSt7__cxx1112basic_stringIcSt11char_traitsIcESaIcEED1Ev>
  4051bc:	90                   	nop
  4051bd:	c9                   	leave
  4051be:	c3                   	ret

00000000004051bf <_ZSt7vformatB5cxx11St17basic_string_viewIcSt11char_traitsIcEESt17basic_format_argsISt20basic_format_contextINSt8__format10_Sink_iterIcEEcEE>:
#endif

  [[nodiscard]]
  inline string
  vformat(string_view __fmt, format_args __args)
  {
  4051bf:	55                   	push   %rbp
  4051c0:	48 89 e5             	mov    %rsp,%rbp
  4051c3:	53                   	push   %rbx
  4051c4:	48 81 ec f8 01 00 00 	sub    $0x1f8,%rsp
  4051cb:	48 89 bd 28 fe ff ff 	mov    %rdi,-0x1d8(%rbp)
  4051d2:	48 89 f0             	mov    %rsi,%rax
  4051d5:	48 89 d6             	mov    %rdx,%rsi
  4051d8:	48 89 c0             	mov    %rax,%rax
  4051db:	ba 00 00 00 00       	mov    $0x0,%edx
  4051e0:	48 89 f2             	mov    %rsi,%rdx
  4051e3:	48 89 85 10 fe ff ff 	mov    %rax,-0x1f0(%rbp)
  4051ea:	48 89 95 18 fe ff ff 	mov    %rdx,-0x1e8(%rbp)
  4051f1:	48 89 c8             	mov    %rcx,%rax
  4051f4:	4c 89 c1             	mov    %r8,%rcx
  4051f7:	48 89 c0             	mov    %rax,%rax
  4051fa:	ba 00 00 00 00       	mov    $0x0,%edx
  4051ff:	48 89 ca             	mov    %rcx,%rdx
  405202:	48 89 85 00 fe ff ff 	mov    %rax,-0x200(%rbp)
  405209:	48 89 95 08 fe ff ff 	mov    %rdx,-0x1f8(%rbp)
      { }
  405210:	48 8d 85 70 fe ff ff 	lea    -0x190(%rbp),%rax
  405217:	48 89 45 e0          	mov    %rax,-0x20(%rbp)
      : _Sink<_CharT>(_M_buf)
  40521b:	48 8b 5d e0          	mov    -0x20(%rbp),%rbx
  40521f:	48 8b 45 e0          	mov    -0x20(%rbp),%rax
  405223:	48 8d 50 20          	lea    0x20(%rax),%rdx
  405227:	48 8d 45 c0          	lea    -0x40(%rbp),%rax
  40522b:	48 89 d6             	mov    %rdx,%rsi
  40522e:	48 89 c7             	mov    %rax,%rdi
  405231:	e8 8c 54 00 00       	call   40a6c2 <_ZNSt4spanIcLm18446744073709551615EEC1ILm256EEERAT__c>
  405236:	48 89 5d d8          	mov    %rbx,-0x28(%rbp)
  40523a:	48 8b 45 c0          	mov    -0x40(%rbp),%rax
  40523e:	48 8b 55 c8          	mov    -0x38(%rbp),%rdx
  405242:	48 89 85 60 fe ff ff 	mov    %rax,-0x1a0(%rbp)
  405249:	48 89 95 68 fe ff ff 	mov    %rdx,-0x198(%rbp)
      : _M_span(__span), _M_next(__span.begin())
  405250:	ba 30 ce 41 00       	mov    $0x41ce30,%edx
  405255:	48 8b 45 d8          	mov    -0x28(%rbp),%rax
  405259:	48 89 10             	mov    %rdx,(%rax)
  40525c:	48 8b 4d d8          	mov    -0x28(%rbp),%rcx
  405260:	48 8b 85 60 fe ff ff 	mov    -0x1a0(%rbp),%rax
  405267:	48 8b 95 68 fe ff ff 	mov    -0x198(%rbp),%rdx
  40526e:	48 89 41 08          	mov    %rax,0x8(%rcx)
  405272:	48 89 51 10          	mov    %rdx,0x10(%rcx)
  405276:	48 8b 5d d8          	mov    -0x28(%rbp),%rbx
  40527a:	48 8d 85 60 fe ff ff 	lea    -0x1a0(%rbp),%rax
  405281:	48 89 c7             	mov    %rax,%rdi
  405284:	e8 8b 57 00 00       	call   40aa14 <_ZNKSt4spanIcLm18446744073709551615EE5beginEv>
  405289:	48 89 43 18          	mov    %rax,0x18(%rbx)
      { }
  40528d:	90                   	nop
      : _Sink<_CharT>(_M_buf)
  40528e:	ba 08 ce 41 00       	mov    $0x41ce08,%edx
  405293:	48 8b 45 e0          	mov    -0x20(%rbp),%rax
  405297:	48 89 10             	mov    %rdx,(%rax)
      { }
  40529a:	90                   	nop
      { }
  40529b:	b8 e0 cd 41 00       	mov    $0x41cde0,%eax
  4052a0:	48 89 85 70 fe ff ff 	mov    %rax,-0x190(%rbp)
  4052a7:	48 8d 85 70 fe ff ff 	lea    -0x190(%rbp),%rax
  4052ae:	48 05 20 01 00 00    	add    $0x120,%rax
  4052b4:	48 89 c7             	mov    %rax,%rdi
  4052b7:	e8 2a f7 ff ff       	call   4049e6 <_ZNSt7__cxx1112basic_stringIcSt11char_traitsIcESaIcEEC1Ev>
  4052bc:	90                   	nop
  4052bd:	48 8d 85 70 fe ff ff 	lea    -0x190(%rbp),%rax
  4052c4:	48 89 45 e8          	mov    %rax,-0x18(%rbp)
      _Sink_iter(_Sink<_CharT>& __sink) : _M_sink(std::addressof(__sink)) { }
  4052c8:	48 8b 45 e8          	mov    -0x18(%rbp),%rax
  4052cc:	48 89 c7             	mov    %rax,%rdi
  4052cf:	e8 19 54 00 00       	call   40a6ed <_ZSt9addressofINSt8__format5_SinkIcEEEPT_RS3_>
  4052d4:	48 89 45 b8          	mov    %rax,-0x48(%rbp)
  4052d8:	90                   	nop
      { return _Sink_iter<_CharT>(*this); }
  4052d9:	48 8b 45 b8          	mov    -0x48(%rbp),%rax
  4052dd:	48 89 85 58 fe ff ff 	mov    %rax,-0x1a8(%rbp)
  4052e4:	48 8b 85 10 fe ff ff 	mov    -0x1f0(%rbp),%rax
  4052eb:	48 8b 95 18 fe ff ff 	mov    -0x1e8(%rbp),%rdx
  4052f2:	48 89 85 40 fe ff ff 	mov    %rax,-0x1c0(%rbp)
  4052f9:	48 89 95 48 fe ff ff 	mov    %rdx,-0x1b8(%rbp)
  405300:	48 8b 85 00 fe ff ff 	mov    -0x200(%rbp),%rax
  405307:	48 8b 95 08 fe ff ff 	mov    -0x1f8(%rbp),%rdx
  40530e:	48 89 85 30 fe ff ff 	mov    %rax,-0x1d0(%rbp)
  405315:	48 89 95 38 fe ff ff 	mov    %rdx,-0x1c8(%rbp)
    { return __format::__do_vformat_to(std::move(__out), __fmt, __args); }
  40531c:	48 8d 85 58 fe ff ff 	lea    -0x1a8(%rbp),%rax
  405323:	48 89 c7             	mov    %rax,%rdi
  405326:	e8 40 3a 00 00       	call   408d6b <_ZSt4moveIRNSt8__format10_Sink_iterIcEEEONSt16remove_referenceIT_E4typeEOS5_>
  40532b:	48 8d 8d 30 fe ff ff 	lea    -0x1d0(%rbp),%rcx
  405332:	48 8b b5 40 fe ff ff 	mov    -0x1c0(%rbp),%rsi
  405339:	48 8b 95 48 fe ff ff 	mov    -0x1b8(%rbp),%rdx
  405340:	48 8b 00             	mov    (%rax),%rax
  405343:	41 b8 00 00 00 00    	mov    $0x0,%r8d
  405349:	48 89 c7             	mov    %rax,%rdi
  40534c:	e8 74 43 00 00       	call   4096c5 <_ZNSt8__format15__do_vformat_toINS_10_Sink_iterIcEEcSt20basic_format_contextIS2_cEEET_S5_St17basic_string_viewIT0_St11char_traitsIS7_EERKSt17basic_format_argsIT1_EPKSt6locale>
  405351:	90                   	nop
    __format::_Str_sink<char> __buf;
    std::vformat_to(__buf.out(), __fmt, __args);
    return std::move(__buf).get();
  405352:	48 8d 85 70 fe ff ff 	lea    -0x190(%rbp),%rax
  405359:	48 89 c7             	mov    %rax,%rdi
  40535c:	e8 e8 21 00 00       	call   407549 <_ZSt4moveIRNSt8__format9_Seq_sinkINSt7__cxx1112basic_stringIcSt11char_traitsIcESaIcEEEEEEONSt16remove_referenceIT_E4typeEOSB_>
  405361:	48 89 c2             	mov    %rax,%rdx
  405364:	48 8b 85 28 fe ff ff 	mov    -0x1d8(%rbp),%rax
  40536b:	48 89 d6             	mov    %rdx,%rsi
  40536e:	48 89 c7             	mov    %rax,%rdi
  405371:	e8 e2 21 00 00       	call   407558 <_ZNOSt8__format9_Seq_sinkINSt7__cxx1112basic_stringIcSt11char_traitsIcESaIcEEEE3getEv>
  405376:	90                   	nop
  }
  405377:	48 8d 85 70 fe ff ff 	lea    -0x190(%rbp),%rax
  40537e:	48 89 c7             	mov    %rax,%rdi
  405381:	e8 0c fe ff ff       	call   405192 <_ZNSt8__format9_Seq_sinkINSt7__cxx1112basic_stringIcSt11char_traitsIcESaIcEEEED1Ev>
    return std::move(__buf).get();
  405386:	eb 1d                	jmp    4053a5 <_ZSt7vformatB5cxx11St17basic_string_viewIcSt11char_traitsIcEESt17basic_format_argsISt20basic_format_contextINSt8__format10_Sink_iterIcEEcEE+0x1e6>
  }
  405388:	48 89 c3             	mov    %rax,%rbx
  40538b:	48 8d 85 70 fe ff ff 	lea    -0x190(%rbp),%rax
  405392:	48 89 c7             	mov    %rax,%rdi
  405395:	e8 f8 fd ff ff       	call   405192 <_ZNSt8__format9_Seq_sinkINSt7__cxx1112basic_stringIcSt11char_traitsIcESaIcEEEED1Ev>
  40539a:	48 89 d8             	mov    %rbx,%rax
  40539d:	48 89 c7             	mov    %rax,%rdi
  4053a0:	e8 cb ef ff ff       	call   404370 <_Unwind_Resume@plt>
  4053a5:	48 8b 85 28 fe ff ff 	mov    -0x1d8(%rbp),%rax
  4053ac:	48 8b 5d f8          	mov    -0x8(%rbp),%rbx
  4053b0:	c9                   	leave
  4053b1:	c3                   	ret

00000000004053b2 <_ZNKSt4spanIcLm18446744073709551615EE4dataEv>:
      }
#endif

      [[nodiscard]]
      constexpr pointer
      data() const noexcept
  4053b2:	55                   	push   %rbp
  4053b3:	48 89 e5             	mov    %rsp,%rbp
  4053b6:	48 89 7d f8          	mov    %rdi,-0x8(%rbp)
      { return this->_M_ptr; }
  4053ba:	48 8b 45 f8          	mov    -0x8(%rbp),%rax
  4053be:	48 8b 00             	mov    (%rax),%rax
  4053c1:	5d                   	pop    %rbp
  4053c2:	c3                   	ret
  4053c3:	90                   	nop

00000000004053c4 <_ZNKSt4spanIcLm18446744073709551615EE4sizeEv>:
      size() const noexcept
  4053c4:	55                   	push   %rbp
  4053c5:	48 89 e5             	mov    %rsp,%rbp
  4053c8:	48 83 ec 10          	sub    $0x10,%rsp
  4053cc:	48 89 7d f8          	mov    %rdi,-0x8(%rbp)
      { return this->_M_extent._M_extent(); }
  4053d0:	48 8b 45 f8          	mov    -0x8(%rbp),%rax
  4053d4:	48 83 c0 08          	add    $0x8,%rax
  4053d8:	48 89 c7             	mov    %rax,%rdi
  4053db:	e8 6c f8 ff ff       	call   404c4c <_ZNKSt8__detail16__extent_storageILm18446744073709551615EE9_M_extentEv>
  4053e0:	c9                   	leave
  4053e1:	c3                   	ret

00000000004053e2 <_ZSt17vprint_nonunicodeP8_IO_FILESt17basic_string_viewIcSt11char_traitsIcEESt17basic_format_argsISt20basic_format_contextINSt8__format10_Sink_iterIcEEcEE>:
{
_GLIBCXX_BEGIN_NAMESPACE_VERSION

  inline void
  vprint_nonunicode(FILE* __stream, string_view __fmt, format_args __args)
  {
  4053e2:	55                   	push   %rbp
  4053e3:	48 89 e5             	mov    %rsp,%rbp
  4053e6:	53                   	push   %rbx
  4053e7:	48 81 ec 08 02 00 00 	sub    $0x208,%rsp
  4053ee:	48 89 bd 18 fe ff ff 	mov    %rdi,-0x1e8(%rbp)
  4053f5:	48 89 f0             	mov    %rsi,%rax
  4053f8:	48 89 d6             	mov    %rdx,%rsi
  4053fb:	48 89 c0             	mov    %rax,%rax
  4053fe:	ba 00 00 00 00       	mov    $0x0,%edx
  405403:	48 89 f2             	mov    %rsi,%rdx
  405406:	48 89 85 00 fe ff ff 	mov    %rax,-0x200(%rbp)
  40540d:	48 89 95 08 fe ff ff 	mov    %rdx,-0x1f8(%rbp)
  405414:	48 89 c8             	mov    %rcx,%rax
  405417:	4c 89 c1             	mov    %r8,%rcx
  40541a:	48 89 c0             	mov    %rax,%rax
  40541d:	ba 00 00 00 00       	mov    $0x0,%edx
  405422:	48 89 ca             	mov    %rcx,%rdx
  405425:	48 89 85 f0 fd ff ff 	mov    %rax,-0x210(%rbp)
  40542c:	48 89 95 f8 fd ff ff 	mov    %rdx,-0x208(%rbp)
      { }
  405433:	48 8d 85 70 fe ff ff 	lea    -0x190(%rbp),%rax
  40543a:	48 89 45 e0          	mov    %rax,-0x20(%rbp)
      : _Sink<_CharT>(_M_buf)
  40543e:	48 8b 5d e0          	mov    -0x20(%rbp),%rbx
  405442:	48 8b 45 e0          	mov    -0x20(%rbp),%rax
  405446:	48 8d 50 20          	lea    0x20(%rax),%rdx
  40544a:	48 8d 45 c0          	lea    -0x40(%rbp),%rax
  40544e:	48 89 d6             	mov    %rdx,%rsi
  405451:	48 89 c7             	mov    %rax,%rdi
  405454:	e8 69 52 00 00       	call   40a6c2 <_ZNSt4spanIcLm18446744073709551615EEC1ILm256EEERAT__c>
  405459:	48 89 5d d8          	mov    %rbx,-0x28(%rbp)
  40545d:	48 8b 45 c0          	mov    -0x40(%rbp),%rax
  405461:	48 8b 55 c8          	mov    -0x38(%rbp),%rdx
  405465:	48 89 85 50 fe ff ff 	mov    %rax,-0x1b0(%rbp)
  40546c:	48 89 95 58 fe ff ff 	mov    %rdx,-0x1a8(%rbp)
      : _M_span(__span), _M_next(__span.begin())
  405473:	ba 30 ce 41 00       	mov    $0x41ce30,%edx
  405478:	48 8b 45 d8          	mov    -0x28(%rbp),%rax
  40547c:	48 89 10             	mov    %rdx,(%rax)
  40547f:	48 8b 4d d8          	mov    -0x28(%rbp),%rcx
  405483:	48 8b 85 50 fe ff ff 	mov    -0x1b0(%rbp),%rax
  40548a:	48 8b 95 58 fe ff ff 	mov    -0x1a8(%rbp),%rdx
  405491:	48 89 41 08          	mov    %rax,0x8(%rcx)
  405495:	48 89 51 10          	mov    %rdx,0x10(%rcx)
  405499:	48 8b 5d d8          	mov    -0x28(%rbp),%rbx
  40549d:	48 8d 85 50 fe ff ff 	lea    -0x1b0(%rbp),%rax
  4054a4:	48 89 c7             	mov    %rax,%rdi
  4054a7:	e8 68 55 00 00       	call   40aa14 <_ZNKSt4spanIcLm18446744073709551615EE5beginEv>
  4054ac:	48 89 43 18          	mov    %rax,0x18(%rbx)
      { }
  4054b0:	90                   	nop
      : _Sink<_CharT>(_M_buf)
  4054b1:	ba 08 ce 41 00       	mov    $0x41ce08,%edx
  4054b6:	48 8b 45 e0          	mov    -0x20(%rbp),%rax
  4054ba:	48 89 10             	mov    %rdx,(%rax)
      { }
  4054bd:	90                   	nop
      { }
  4054be:	b8 e0 cd 41 00       	mov    $0x41cde0,%eax
  4054c3:	48 89 85 70 fe ff ff 	mov    %rax,-0x190(%rbp)
  4054ca:	48 8d 85 70 fe ff ff 	lea    -0x190(%rbp),%rax
  4054d1:	48 05 20 01 00 00    	add    $0x120,%rax
  4054d7:	48 89 c7             	mov    %rax,%rdi
  4054da:	e8 07 f5 ff ff       	call   4049e6 <_ZNSt7__cxx1112basic_stringIcSt11char_traitsIcESaIcEEC1Ev>
  4054df:	90                   	nop
  4054e0:	48 8d 85 70 fe ff ff 	lea    -0x190(%rbp),%rax
  4054e7:	48 89 45 e8          	mov    %rax,-0x18(%rbp)
      _Sink_iter(_Sink<_CharT>& __sink) : _M_sink(std::addressof(__sink)) { }
  4054eb:	48 8b 45 e8          	mov    -0x18(%rbp),%rax
  4054ef:	48 89 c7             	mov    %rax,%rdi
  4054f2:	e8 f6 51 00 00       	call   40a6ed <_ZSt9addressofINSt8__format5_SinkIcEEEPT_RS3_>
  4054f7:	48 89 45 b8          	mov    %rax,-0x48(%rbp)
  4054fb:	90                   	nop
      { return _Sink_iter<_CharT>(*this); }
  4054fc:	48 8b 45 b8          	mov    -0x48(%rbp),%rax
  405500:	48 89 85 48 fe ff ff 	mov    %rax,-0x1b8(%rbp)
  405507:	48 8b 85 00 fe ff ff 	mov    -0x200(%rbp),%rax
  40550e:	48 8b 95 08 fe ff ff 	mov    -0x1f8(%rbp),%rdx
  405515:	48 89 85 30 fe ff ff 	mov    %rax,-0x1d0(%rbp)
  40551c:	48 89 95 38 fe ff ff 	mov    %rdx,-0x1c8(%rbp)
  405523:	48 8b 85 f0 fd ff ff 	mov    -0x210(%rbp),%rax
  40552a:	48 8b 95 f8 fd ff ff 	mov    -0x208(%rbp),%rdx
  405531:	48 89 85 20 fe ff ff 	mov    %rax,-0x1e0(%rbp)
  405538:	48 89 95 28 fe ff ff 	mov    %rdx,-0x1d8(%rbp)
    { return __format::__do_vformat_to(std::move(__out), __fmt, __args); }
  40553f:	48 8d 85 48 fe ff ff 	lea    -0x1b8(%rbp),%rax
  405546:	48 89 c7             	mov    %rax,%rdi
  405549:	e8 1d 38 00 00       	call   408d6b <_ZSt4moveIRNSt8__format10_Sink_iterIcEEEONSt16remove_referenceIT_E4typeEOS5_>
  40554e:	48 8d 8d 20 fe ff ff 	lea    -0x1e0(%rbp),%rcx
  405555:	48 8b b5 30 fe ff ff 	mov    -0x1d0(%rbp),%rsi
  40555c:	48 8b 95 38 fe ff ff 	mov    -0x1c8(%rbp),%rdx
  405563:	48 8b 00             	mov    (%rax),%rax
  405566:	41 b8 00 00 00 00    	mov    $0x0,%r8d
  40556c:	48 89 c7             	mov    %rax,%rdi
  40556f:	e8 51 41 00 00       	call   4096c5 <_ZNSt8__format15__do_vformat_toINS_10_Sink_iterIcEEcSt20basic_format_contextIS2_cEEET_S5_St17basic_string_viewIT0_St11char_traitsIS7_EERKSt17basic_format_argsIT1_EPKSt6locale>
  405574:	90                   	nop
    __format::_Str_sink<char> __buf;
    std::vformat_to(__buf.out(), __fmt, __args);
    auto __out = __buf.view();
  405575:	48 8d 85 70 fe ff ff 	lea    -0x190(%rbp),%rax
  40557c:	48 89 c7             	mov    %rax,%rdi
  40557f:	e8 c0 20 00 00       	call   407644 <_ZNSt8__format9_Seq_sinkINSt7__cxx1112basic_stringIcSt11char_traitsIcESaIcEEEE4viewEv>
  405584:	48 89 85 60 fe ff ff 	mov    %rax,-0x1a0(%rbp)
  40558b:	48 89 95 68 fe ff ff 	mov    %rdx,-0x198(%rbp)
    if (std::fwrite(__out.data(), 1, __out.size(), __stream) != __out.size())
  405592:	48 8d 85 60 fe ff ff 	lea    -0x1a0(%rbp),%rax
  405599:	48 89 c7             	mov    %rax,%rdi
  40559c:	e8 23 fe ff ff       	call   4053c4 <_ZNKSt4spanIcLm18446744073709551615EE4sizeEv>
  4055a1:	48 89 c3             	mov    %rax,%rbx
  4055a4:	48 8d 85 60 fe ff ff 	lea    -0x1a0(%rbp),%rax
  4055ab:	48 89 c7             	mov    %rax,%rdi
  4055ae:	e8 ff fd ff ff       	call   4053b2 <_ZNKSt4spanIcLm18446744073709551615EE4dataEv>
  4055b3:	48 89 c7             	mov    %rax,%rdi
  4055b6:	48 8b 85 18 fe ff ff 	mov    -0x1e8(%rbp),%rax
  4055bd:	48 89 c1             	mov    %rax,%rcx
  4055c0:	48 89 da             	mov    %rbx,%rdx
  4055c3:	be 01 00 00 00       	mov    $0x1,%esi
  4055c8:	e8 f3 ed ff ff       	call   4043c0 <fwrite@plt>
  4055cd:	48 89 c3             	mov    %rax,%rbx
  4055d0:	48 8d 85 60 fe ff ff 	lea    -0x1a0(%rbp),%rax
  4055d7:	48 89 c7             	mov    %rax,%rdi
  4055da:	e8 e5 fd ff ff       	call   4053c4 <_ZNKSt4spanIcLm18446744073709551615EE4sizeEv>
  4055df:	48 39 c3             	cmp    %rax,%rbx
  4055e2:	0f 95 c0             	setne  %al
  4055e5:	84 c0                	test   %al,%al
  4055e7:	74 0a                	je     4055f3 <_ZSt17vprint_nonunicodeP8_IO_FILESt17basic_string_viewIcSt11char_traitsIcEESt17basic_format_argsISt20basic_format_contextINSt8__format10_Sink_iterIcEEcEE+0x211>
      __throw_system_error(EIO);
  4055e9:	bf 05 00 00 00       	mov    $0x5,%edi
  4055ee:	e8 7d eb ff ff       	call   404170 <_ZSt20__throw_system_errori@plt>
  }
  4055f3:	48 8d 85 70 fe ff ff 	lea    -0x190(%rbp),%rax
  4055fa:	48 89 c7             	mov    %rax,%rdi
  4055fd:	e8 90 fb ff ff       	call   405192 <_ZNSt8__format9_Seq_sinkINSt7__cxx1112basic_stringIcSt11char_traitsIcESaIcEEEED1Ev>
  405602:	eb 1d                	jmp    405621 <_ZSt17vprint_nonunicodeP8_IO_FILESt17basic_string_viewIcSt11char_traitsIcEESt17basic_format_argsISt20basic_format_contextINSt8__format10_Sink_iterIcEEcEE+0x23f>
  405604:	48 89 c3             	mov    %rax,%rbx
  405607:	48 8d 85 70 fe ff ff 	lea    -0x190(%rbp),%rax
  40560e:	48 89 c7             	mov    %rax,%rdi
  405611:	e8 7c fb ff ff       	call   405192 <_ZNSt8__format9_Seq_sinkINSt7__cxx1112basic_stringIcSt11char_traitsIcESaIcEEEED1Ev>
  405616:	48 89 d8             	mov    %rbx,%rax
  405619:	48 89 c7             	mov    %rax,%rdi
  40561c:	e8 4f ed ff ff       	call   404370 <_Unwind_Resume@plt>
  405621:	48 8b 5d f8          	mov    -0x8(%rbp),%rbx
  405625:	c9                   	leave
  405626:	c3                   	ret

0000000000405627 <_ZSt14vprint_unicodeP8_IO_FILESt17basic_string_viewIcSt11char_traitsIcEESt17basic_format_argsISt20basic_format_contextINSt8__format10_Sink_iterIcEEcEE>:

  inline void
  vprint_unicode(FILE* __stream, string_view __fmt, format_args __args)
  {
  405627:	55                   	push   %rbp
  405628:	48 89 e5             	mov    %rsp,%rbp
  40562b:	48 83 ec 30          	sub    $0x30,%rsp
  40562f:	48 89 7d f8          	mov    %rdi,-0x8(%rbp)
  405633:	48 89 f0             	mov    %rsi,%rax
  405636:	48 89 d6             	mov    %rdx,%rsi
  405639:	48 89 c0             	mov    %rax,%rax
  40563c:	ba 00 00 00 00       	mov    $0x0,%edx
  405641:	48 89 f2             	mov    %rsi,%rdx
  405644:	48 89 45 e0          	mov    %rax,-0x20(%rbp)
  405648:	48 89 55 e8          	mov    %rdx,-0x18(%rbp)
  40564c:	48 89 c8             	mov    %rcx,%rax
  40564f:	4c 89 c1             	mov    %r8,%rcx
  405652:	48 89 c0             	mov    %rax,%rax
  405655:	ba 00 00 00 00       	mov    $0x0,%edx
  40565a:	48 89 ca             	mov    %rcx,%rdx
  40565d:	48 89 45 d0          	mov    %rax,-0x30(%rbp)
  405661:	48 89 55 d8          	mov    %rdx,-0x28(%rbp)
#if !defined(_WIN32) || defined(__CYGWIN__)
    // For most targets we don't need to do anything special to write
    // Unicode to a terminal.
    std::vprint_nonunicode(__stream, __fmt, __args);
  405665:	48 8b 4d d0          	mov    -0x30(%rbp),%rcx
  405669:	48 8b 7d d8          	mov    -0x28(%rbp),%rdi
  40566d:	48 8b 75 e0          	mov    -0x20(%rbp),%rsi
  405671:	48 8b 55 e8          	mov    -0x18(%rbp),%rdx
  405675:	48 8b 45 f8          	mov    -0x8(%rbp),%rax
  405679:	49 89 f8             	mov    %rdi,%r8
  40567c:	48 89 c7             	mov    %rax,%rdi
  40567f:	e8 5e fd ff ff       	call   4053e2 <_ZSt17vprint_nonunicodeP8_IO_FILESt17basic_string_viewIcSt11char_traitsIcEESt17basic_format_argsISt20basic_format_contextINSt8__format10_Sink_iterIcEEcEE>

    // Otherwise just write the string to the file as vprint_nonunicode does.
    if (std::fwrite(__out.data(), 1, __out.size(), __stream) != __out.size())
      __throw_system_error(EIO);
#endif
  }
  405684:	90                   	nop
  405685:	c9                   	leave
  405686:	c3                   	ret
  405687:	90                   	nop

0000000000405688 <_ZNSt7__cxx1112basic_stringIcSt11char_traitsIcESaIcEE12_Alloc_hiderC1EPcRKS3_>:
	_Alloc_hider(pointer __dat, const _Alloc& __a)
  405688:	55                   	push   %rbp
  405689:	48 89 e5             	mov    %rsp,%rbp
  40568c:	48 89 7d d8          	mov    %rdi,-0x28(%rbp)
  405690:	48 89 75 d0          	mov    %rsi,-0x30(%rbp)
  405694:	48 89 55 c8          	mov    %rdx,-0x38(%rbp)
  405698:	48 8b 45 d8          	mov    -0x28(%rbp),%rax
  40569c:	48 89 45 f8          	mov    %rax,-0x8(%rbp)
  4056a0:	48 8b 45 c8          	mov    -0x38(%rbp),%rax
  4056a4:	48 89 45 f0          	mov    %rax,-0x10(%rbp)
  4056a8:	48 8b 45 f8          	mov    -0x8(%rbp),%rax
  4056ac:	48 89 45 e8          	mov    %rax,-0x18(%rbp)
  4056b0:	48 8b 45 f0          	mov    -0x10(%rbp),%rax
  4056b4:	48 89 45 e0          	mov    %rax,-0x20(%rbp)
      __new_allocator(const __new_allocator&) _GLIBCXX_USE_NOEXCEPT { }
  4056b8:	90                   	nop
      : __allocator_base<_Tp>(__a) { }
  4056b9:	90                   	nop
	: allocator_type(__a), _M_p(__dat) { }
  4056ba:	48 8b 45 d8          	mov    -0x28(%rbp),%rax
  4056be:	48 8b 55 d0          	mov    -0x30(%rbp),%rdx
  4056c2:	48 89 10             	mov    %rdx,(%rax)
  4056c5:	90                   	nop
  4056c6:	5d                   	pop    %rbp
  4056c7:	c3                   	ret

00000000004056c8 <_ZNSt7__cxx1112basic_stringIcSt11char_traitsIcESaIcEEC1IS3_EEPKcRKS3_>:
      basic_string(const _CharT* __s, const _Alloc& __a = _Alloc())
  4056c8:	55                   	push   %rbp
  4056c9:	48 89 e5             	mov    %rsp,%rbp
  4056cc:	53                   	push   %rbx
  4056cd:	48 83 ec 38          	sub    $0x38,%rsp
  4056d1:	48 89 7d d8          	mov    %rdi,-0x28(%rbp)
  4056d5:	48 89 75 d0          	mov    %rsi,-0x30(%rbp)
  4056d9:	48 89 55 c8          	mov    %rdx,-0x38(%rbp)
      : _M_dataplus(_M_local_data(), __a)
  4056dd:	48 8b 5d d8          	mov    -0x28(%rbp),%rbx
  4056e1:	48 8b 45 d8          	mov    -0x28(%rbp),%rax
  4056e5:	48 89 c7             	mov    %rax,%rdi
  4056e8:	e8 2b f2 ff ff       	call   404918 <_ZNSt7__cxx1112basic_stringIcSt11char_traitsIcESaIcEE13_M_local_dataEv>
  4056ed:	48 89 c1             	mov    %rax,%rcx
  4056f0:	48 8b 45 c8          	mov    -0x38(%rbp),%rax
  4056f4:	48 89 c2             	mov    %rax,%rdx
  4056f7:	48 89 ce             	mov    %rcx,%rsi
  4056fa:	48 89 df             	mov    %rbx,%rdi
  4056fd:	e8 86 ff ff ff       	call   405688 <_ZNSt7__cxx1112basic_stringIcSt11char_traitsIcESaIcEE12_Alloc_hiderC1EPcRKS3_>
	if (__s == 0)
  405702:	48 83 7d d0 00       	cmpq   $0x0,-0x30(%rbp)
  405707:	75 0a                	jne    405713 <_ZNSt7__cxx1112basic_stringIcSt11char_traitsIcESaIcEEC1IS3_EEPKcRKS3_+0x4b>
	  std::__throw_logic_error(__N("basic_string: "
  405709:	bf 48 a1 41 00       	mov    $0x41a148,%edi
  40570e:	e8 6d ea ff ff       	call   404180 <_ZSt19__throw_logic_errorPKc@plt>
	const _CharT* __end = __s + traits_type::length(__s);
  405713:	48 8b 45 d0          	mov    -0x30(%rbp),%rax
  405717:	48 89 c7             	mov    %rax,%rdi
  40571a:	e8 04 f0 ff ff       	call   404723 <_ZNSt11char_traitsIcE6lengthEPKc>
  40571f:	48 8b 55 d0          	mov    -0x30(%rbp),%rdx
  405723:	48 01 d0             	add    %rdx,%rax
  405726:	48 89 45 e8          	mov    %rax,-0x18(%rbp)
	_M_construct(__s, __end, forward_iterator_tag());
  40572a:	48 8b 55 e8          	mov    -0x18(%rbp),%rdx
  40572e:	48 8b 4d d0          	mov    -0x30(%rbp),%rcx
  405732:	48 8b 45 d8          	mov    -0x28(%rbp),%rax
  405736:	48 89 ce             	mov    %rcx,%rsi
  405739:	48 89 c7             	mov    %rax,%rdi
  40573c:	e8 13 20 00 00       	call   407754 <_ZNSt7__cxx1112basic_stringIcSt11char_traitsIcESaIcEE12_M_constructIPKcEEvT_S8_St20forward_iterator_tag>
      }
  405741:	eb 1a                	jmp    40575d <_ZNSt7__cxx1112basic_stringIcSt11char_traitsIcESaIcEEC1IS3_EEPKcRKS3_+0x95>
  405743:	48 89 c3             	mov    %rax,%rbx
  405746:	48 8b 45 d8          	mov    -0x28(%rbp),%rax
  40574a:	48 89 c7             	mov    %rax,%rdi
  40574d:	e8 80 f2 ff ff       	call   4049d2 <_ZNSt7__cxx1112basic_stringIcSt11char_traitsIcESaIcEE12_Alloc_hiderD1Ev>
  405752:	48 89 d8             	mov    %rbx,%rax
  405755:	48 89 c7             	mov    %rax,%rdi
  405758:	e8 13 ec ff ff       	call   404370 <_Unwind_Resume@plt>
  40575d:	48 8b 5d f8          	mov    -0x8(%rbp),%rbx
  405761:	c9                   	leave
  405762:	c3                   	ret
  405763:	90                   	nop

0000000000405764 <_ZNSt17basic_string_viewIcSt11char_traitsIcEEC1EPKc>:

      constexpr basic_string_view(const basic_string_view&) noexcept = default;

      [[__gnu__::__nonnull__]]
      constexpr
      basic_string_view(const _CharT* __str) noexcept
  405764:	55                   	push   %rbp
  405765:	48 89 e5             	mov    %rsp,%rbp
  405768:	48 83 ec 10          	sub    $0x10,%rsp
  40576c:	48 89 7d f8          	mov    %rdi,-0x8(%rbp)
  405770:	48 89 75 f0          	mov    %rsi,-0x10(%rbp)
      : _M_len{traits_type::length(__str)},
  405774:	48 8b 45 f0          	mov    -0x10(%rbp),%rax
  405778:	48 89 c7             	mov    %rax,%rdi
  40577b:	e8 a3 ef ff ff       	call   404723 <_ZNSt11char_traitsIcE6lengthEPKc>
  405780:	48 8b 55 f8          	mov    -0x8(%rbp),%rdx
  405784:	48 89 02             	mov    %rax,(%rdx)
	_M_str{__str}
  405787:	48 8b 45 f8          	mov    -0x8(%rbp),%rax
  40578b:	48 8b 55 f0          	mov    -0x10(%rbp),%rdx
  40578f:	48 89 50 08          	mov    %rdx,0x8(%rax)
      { }
  405793:	90                   	nop
  405794:	c9                   	leave
  405795:	c3                   	ret

0000000000405796 <_ZN9__gnu_cxx11char_traitsIcE6lengthEPKc>:
    char_traits<_CharT>::
  405796:	55                   	push   %rbp
  405797:	48 89 e5             	mov    %rsp,%rbp
  40579a:	48 83 ec 20          	sub    $0x20,%rsp
  40579e:	48 89 7d e8          	mov    %rdi,-0x18(%rbp)
      std::size_t __i = 0;
  4057a2:	48 c7 45 f8 00 00 00 	movq   $0x0,-0x8(%rbp)
  4057a9:	00
      while (!eq(__p[__i], char_type()))
  4057aa:	eb 05                	jmp    4057b1 <_ZN9__gnu_cxx11char_traitsIcE6lengthEPKc+0x1b>
        ++__i;
  4057ac:	48 83 45 f8 01       	addq   $0x1,-0x8(%rbp)
      while (!eq(__p[__i], char_type()))
  4057b1:	c6 45 f7 00          	movb   $0x0,-0x9(%rbp)
  4057b5:	48 8b 55 e8          	mov    -0x18(%rbp),%rdx
  4057b9:	48 8b 45 f8          	mov    -0x8(%rbp),%rax
  4057bd:	48 01 c2             	add    %rax,%rdx
  4057c0:	48 8d 45 f7          	lea    -0x9(%rbp),%rax
  4057c4:	48 89 c6             	mov    %rax,%rsi
  4057c7:	48 89 d7             	mov    %rdx,%rdi
  4057ca:	e8 0d 00 00 00       	call   4057dc <_ZN9__gnu_cxx11char_traitsIcE2eqERKcS3_>
  4057cf:	83 f0 01             	xor    $0x1,%eax
  4057d2:	84 c0                	test   %al,%al
  4057d4:	75 d6                	jne    4057ac <_ZN9__gnu_cxx11char_traitsIcE6lengthEPKc+0x16>
      return __i;
  4057d6:	48 8b 45 f8          	mov    -0x8(%rbp),%rax
    }
  4057da:	c9                   	leave
  4057db:	c3                   	ret

00000000004057dc <_ZN9__gnu_cxx11char_traitsIcE2eqERKcS3_>:
      eq(const char_type& __c1, const char_type& __c2)
  4057dc:	55                   	push   %rbp
  4057dd:	48 89 e5             	mov    %rsp,%rbp
  4057e0:	48 89 7d f8          	mov    %rdi,-0x8(%rbp)
  4057e4:	48 89 75 f0          	mov    %rsi,-0x10(%rbp)
      { return __c1 == __c2; }
  4057e8:	48 8b 45 f8          	mov    -0x8(%rbp),%rax
  4057ec:	0f b6 10             	movzbl (%rax),%edx
  4057ef:	48 8b 45 f0          	mov    -0x10(%rbp),%rax
  4057f3:	0f b6 00             	movzbl (%rax),%eax
  4057f6:	38 c2                	cmp    %al,%dl
  4057f8:	0f 94 c0             	sete   %al
  4057fb:	5d                   	pop    %rbp
  4057fc:	c3                   	ret
  4057fd:	90                   	nop

00000000004057fe <_ZNSt8__format8_ScannerIcEC1ESt17basic_string_viewIcSt11char_traitsIcEEm>:
      _Scanner(basic_string_view<_CharT> __str, size_t __nargs = -1)
  4057fe:	55                   	push   %rbp
  4057ff:	48 89 e5             	mov    %rsp,%rbp
  405802:	48 83 ec 20          	sub    $0x20,%rsp
  405806:	48 89 7d f8          	mov    %rdi,-0x8(%rbp)
  40580a:	48 89 f0             	mov    %rsi,%rax
  40580d:	48 89 d6             	mov    %rdx,%rsi
  405810:	48 89 c0             	mov    %rax,%rax
  405813:	ba 00 00 00 00       	mov    $0x0,%edx
  405818:	48 89 f2             	mov    %rsi,%rdx
  40581b:	48 89 45 e0          	mov    %rax,-0x20(%rbp)
  40581f:	48 89 55 e8          	mov    %rdx,-0x18(%rbp)
  405823:	48 89 4d f0          	mov    %rcx,-0x10(%rbp)
      : _M_pc(__str, __nargs)
  405827:	ba c0 cd 41 00       	mov    $0x41cdc0,%edx
  40582c:	48 8b 45 f8          	mov    -0x8(%rbp),%rax
  405830:	48 89 10             	mov    %rdx,(%rax)
  405833:	48 8b 45 f8          	mov    -0x8(%rbp),%rax
  405837:	48 8d 78 08          	lea    0x8(%rax),%rdi
  40583b:	48 8b 4d f0          	mov    -0x10(%rbp),%rcx
  40583f:	48 8b 55 e0          	mov    -0x20(%rbp),%rdx
  405843:	48 8b 45 e8          	mov    -0x18(%rbp),%rax
  405847:	48 89 d6             	mov    %rdx,%rsi
  40584a:	48 89 c2             	mov    %rax,%rdx
  40584d:	e8 04 00 00 00       	call   405856 <_ZNSt26basic_format_parse_contextIcEC1ESt17basic_string_viewIcSt11char_traitsIcEEm>
      { }
  405852:	90                   	nop
  405853:	c9                   	leave
  405854:	c3                   	ret
  405855:	90                   	nop

0000000000405856 <_ZNSt26basic_format_parse_contextIcEC1ESt17basic_string_viewIcSt11char_traitsIcEEm>:
      basic_format_parse_context(basic_string_view<_CharT> __fmt,
  405856:	55                   	push   %rbp
  405857:	48 89 e5             	mov    %rsp,%rbp
  40585a:	48 83 ec 20          	sub    $0x20,%rsp
  40585e:	48 89 7d f8          	mov    %rdi,-0x8(%rbp)
  405862:	48 89 f0             	mov    %rsi,%rax
  405865:	48 89 d6             	mov    %rdx,%rsi
  405868:	48 89 c0             	mov    %rax,%rax
  40586b:	ba 00 00 00 00       	mov    $0x0,%edx
  405870:	48 89 f2             	mov    %rsi,%rdx
  405873:	48 89 45 e0          	mov    %rax,-0x20(%rbp)
  405877:	48 89 55 e8          	mov    %rdx,-0x18(%rbp)
  40587b:	48 89 4d f0          	mov    %rcx,-0x10(%rbp)
      : _M_begin(__fmt.begin()), _M_end(__fmt.end()), _M_num_args(__num_args)
  40587f:	48 8d 45 e0          	lea    -0x20(%rbp),%rax
  405883:	48 89 c7             	mov    %rax,%rdi
  405886:	e8 41 00 00 00       	call   4058cc <_ZNKSt17basic_string_viewIcSt11char_traitsIcEE5beginEv>
  40588b:	48 8b 55 f8          	mov    -0x8(%rbp),%rdx
  40588f:	48 89 02             	mov    %rax,(%rdx)
  405892:	48 8d 45 e0          	lea    -0x20(%rbp),%rax
  405896:	48 89 c7             	mov    %rax,%rdi
  405899:	e8 40 00 00 00       	call   4058de <_ZNKSt17basic_string_viewIcSt11char_traitsIcEE3endEv>
  40589e:	48 8b 55 f8          	mov    -0x8(%rbp),%rdx
  4058a2:	48 89 42 08          	mov    %rax,0x8(%rdx)
  4058a6:	48 8b 45 f8          	mov    -0x8(%rbp),%rax
  4058aa:	c7 40 10 00 00 00 00 	movl   $0x0,0x10(%rax)
  4058b1:	48 8b 45 f8          	mov    -0x8(%rbp),%rax
  4058b5:	48 c7 40 18 00 00 00 	movq   $0x0,0x18(%rax)
  4058bc:	00
  4058bd:	48 8b 45 f8          	mov    -0x8(%rbp),%rax
  4058c1:	48 8b 55 f0          	mov    -0x10(%rbp),%rdx
  4058c5:	48 89 50 20          	mov    %rdx,0x20(%rax)
      { }
  4058c9:	90                   	nop
  4058ca:	c9                   	leave
  4058cb:	c3                   	ret

00000000004058cc <_ZNKSt17basic_string_viewIcSt11char_traitsIcEE5beginEv>:

      // [string.view.iterators], iterator support

      [[nodiscard]]
      constexpr const_iterator
      begin() const noexcept
  4058cc:	55                   	push   %rbp
  4058cd:	48 89 e5             	mov    %rsp,%rbp
  4058d0:	48 89 7d f8          	mov    %rdi,-0x8(%rbp)
      { return this->_M_str; }
  4058d4:	48 8b 45 f8          	mov    -0x8(%rbp),%rax
  4058d8:	48 8b 40 08          	mov    0x8(%rax),%rax
  4058dc:	5d                   	pop    %rbp
  4058dd:	c3                   	ret

00000000004058de <_ZNKSt17basic_string_viewIcSt11char_traitsIcEE3endEv>:

      [[nodiscard]]
      constexpr const_iterator
      end() const noexcept
  4058de:	55                   	push   %rbp
  4058df:	48 89 e5             	mov    %rsp,%rbp
  4058e2:	48 89 7d f8          	mov    %rdi,-0x8(%rbp)
      { return this->_M_str + this->_M_len; }
  4058e6:	48 8b 45 f8          	mov    -0x8(%rbp),%rax
  4058ea:	48 8b 50 08          	mov    0x8(%rax),%rdx
  4058ee:	48 8b 45 f8          	mov    -0x8(%rbp),%rax
  4058f2:	48 8b 00             	mov    (%rax),%rax
  4058f5:	48 01 d0             	add    %rdx,%rax
  4058f8:	5d                   	pop    %rbp
  4058f9:	c3                   	ret

00000000004058fa <_ZNKSt17basic_string_viewIcSt11char_traitsIcEE4sizeEv>:

      // [string.view.capacity], capacity

      [[nodiscard]]
      constexpr size_type
      size() const noexcept
  4058fa:	55                   	push   %rbp
  4058fb:	48 89 e5             	mov    %rsp,%rbp
  4058fe:	48 89 7d f8          	mov    %rdi,-0x8(%rbp)
      { return this->_M_len; }
  405902:	48 8b 45 f8          	mov    -0x8(%rbp),%rax
  405906:	48 8b 00             	mov    (%rax),%rax
  405909:	5d                   	pop    %rbp
  40590a:	c3                   	ret
  40590b:	90                   	nop

000000000040590c <_ZNKSt17basic_string_viewIcSt11char_traitsIcEEixEm>:

      // [string.view.access], element access

      [[nodiscard]]
      constexpr const_reference
      operator[](size_type __pos) const noexcept
  40590c:	55                   	push   %rbp
  40590d:	48 89 e5             	mov    %rsp,%rbp
  405910:	48 89 7d f8          	mov    %rdi,-0x8(%rbp)
  405914:	48 89 75 f0          	mov    %rsi,-0x10(%rbp)
  405918:	b8 00 00 00 00       	mov    $0x0,%eax
      {
	__glibcxx_assert(__pos < this->_M_len);
  40591d:	84 c0                	test   %al,%al
  40591f:	74 14                	je     405935 <_ZNKSt17basic_string_viewIcSt11char_traitsIcEEixEm+0x29>
  405921:	48 8b 45 f8          	mov    -0x8(%rbp),%rax
  405925:	48 8b 00             	mov    (%rax),%rax
  405928:	48 39 45 f0          	cmp    %rax,-0x10(%rbp)
  40592c:	0f 93 c0             	setae  %al
  40592f:	0f b6 c0             	movzbl %al,%eax
  405932:	48 85 c0             	test   %rax,%rax
	return *(this->_M_str + __pos);
  405935:	48 8b 45 f8          	mov    -0x8(%rbp),%rax
  405939:	48 8b 50 08          	mov    0x8(%rax),%rdx
  40593d:	48 8b 45 f0          	mov    -0x10(%rbp),%rax
  405941:	48 01 d0             	add    %rdx,%rax
      }
  405944:	5d                   	pop    %rbp
  405945:	c3                   	ret

0000000000405946 <_ZNSt8__format8_ScannerIcE7_M_scanEv>:
      _M_scan()
  405946:	55                   	push   %rbp
  405947:	48 89 e5             	mov    %rsp,%rbp
  40594a:	53                   	push   %rbx
  40594b:	48 83 ec 68          	sub    $0x68,%rsp
  40594f:	48 89 7d 98          	mov    %rdi,-0x68(%rbp)
	basic_string_view<_CharT> __fmt = _M_fmt_str();
  405953:	48 8b 45 98          	mov    -0x68(%rbp),%rax
  405957:	48 89 c7             	mov    %rax,%rdi
  40595a:	e8 dd 03 00 00       	call   405d3c <_ZNKSt8__format8_ScannerIcE10_M_fmt_strEv>
  40595f:	48 89 45 b0          	mov    %rax,-0x50(%rbp)
  405963:	48 89 55 b8          	mov    %rdx,-0x48(%rbp)
	if (__fmt.size() == 2 && __fmt[0] == '{' && __fmt[1] == '}')
  405967:	48 8d 45 b0          	lea    -0x50(%rbp),%rax
  40596b:	48 89 c7             	mov    %rax,%rdi
  40596e:	e8 87 ff ff ff       	call   4058fa <_ZNKSt17basic_string_viewIcSt11char_traitsIcEE4sizeEv>
  405973:	48 83 f8 02          	cmp    $0x2,%rax
  405977:	75 37                	jne    4059b0 <_ZNSt8__format8_ScannerIcE7_M_scanEv+0x6a>
  405979:	48 8d 45 b0          	lea    -0x50(%rbp),%rax
  40597d:	be 00 00 00 00       	mov    $0x0,%esi
  405982:	48 89 c7             	mov    %rax,%rdi
  405985:	e8 82 ff ff ff       	call   40590c <_ZNKSt17basic_string_viewIcSt11char_traitsIcEEixEm>
  40598a:	0f b6 00             	movzbl (%rax),%eax
  40598d:	3c 7b                	cmp    $0x7b,%al
  40598f:	75 1f                	jne    4059b0 <_ZNSt8__format8_ScannerIcE7_M_scanEv+0x6a>
  405991:	48 8d 45 b0          	lea    -0x50(%rbp),%rax
  405995:	be 01 00 00 00       	mov    $0x1,%esi
  40599a:	48 89 c7             	mov    %rax,%rdi
  40599d:	e8 6a ff ff ff       	call   40590c <_ZNKSt17basic_string_viewIcSt11char_traitsIcEEixEm>
  4059a2:	0f b6 00             	movzbl (%rax),%eax
  4059a5:	3c 7d                	cmp    $0x7d,%al
  4059a7:	75 07                	jne    4059b0 <_ZNSt8__format8_ScannerIcE7_M_scanEv+0x6a>
  4059a9:	b8 01 00 00 00       	mov    $0x1,%eax
  4059ae:	eb 05                	jmp    4059b5 <_ZNSt8__format8_ScannerIcE7_M_scanEv+0x6f>
  4059b0:	b8 00 00 00 00       	mov    $0x0,%eax
  4059b5:	84 c0                	test   %al,%al
  4059b7:	74 55                	je     405a0e <_ZNSt8__format8_ScannerIcE7_M_scanEv+0xc8>
	    _M_pc.advance_to(begin() + 1);
  4059b9:	48 8b 45 98          	mov    -0x68(%rbp),%rax
  4059bd:	48 8d 58 08          	lea    0x8(%rax),%rbx
  4059c1:	48 8b 45 98          	mov    -0x68(%rbp),%rax
  4059c5:	48 89 c7             	mov    %rax,%rdi
  4059c8:	e8 b7 03 00 00       	call   405d84 <_ZNKSt8__format8_ScannerIcE5beginEv>
  4059cd:	48 83 c0 01          	add    $0x1,%rax
  4059d1:	48 89 c6             	mov    %rax,%rsi
  4059d4:	48 89 df             	mov    %rbx,%rdi
  4059d7:	e8 6e 04 00 00       	call   405e4a <_ZNSt26basic_format_parse_contextIcE10advance_toEPKc>
	    _M_format_arg(_M_pc.next_arg_id());
  4059dc:	48 8b 45 98          	mov    -0x68(%rbp),%rax
  4059e0:	48 8b 00             	mov    (%rax),%rax
  4059e3:	48 83 c0 08          	add    $0x8,%rax
  4059e7:	48 8b 18             	mov    (%rax),%rbx
  4059ea:	48 8b 45 98          	mov    -0x68(%rbp),%rax
  4059ee:	48 83 c0 08          	add    $0x8,%rax
  4059f2:	48 89 c7             	mov    %rax,%rdi
  4059f5:	e8 6a 04 00 00       	call   405e64 <_ZNSt26basic_format_parse_contextIcE11next_arg_idEv>
  4059fa:	48 89 c2             	mov    %rax,%rdx
  4059fd:	48 8b 45 98          	mov    -0x68(%rbp),%rax
  405a01:	48 89 d6             	mov    %rdx,%rsi
  405a04:	48 89 c7             	mov    %rax,%rdi
  405a07:	ff d3                	call   *%rbx
	    return;
  405a09:	e9 28 03 00 00       	jmp    405d36 <_ZNSt8__format8_ScannerIcE7_M_scanEv+0x3f0>
	size_t __lbr = __fmt.find('{');
  405a0e:	48 8d 45 b0          	lea    -0x50(%rbp),%rax
  405a12:	ba 00 00 00 00       	mov    $0x0,%edx
  405a17:	be 7b 00 00 00       	mov    $0x7b,%esi
  405a1c:	48 89 c7             	mov    %rax,%rdi
  405a1f:	e8 a4 1e 00 00       	call   4078c8 <_ZNKSt17basic_string_viewIcSt11char_traitsIcEE4findEcm>
  405a24:	48 89 45 e8          	mov    %rax,-0x18(%rbp)
	size_t __rbr = __fmt.find('}');
  405a28:	48 8d 45 b0          	lea    -0x50(%rbp),%rax
  405a2c:	ba 00 00 00 00       	mov    $0x0,%edx
  405a31:	be 7d 00 00 00       	mov    $0x7d,%esi
  405a36:	48 89 c7             	mov    %rax,%rdi
  405a39:	e8 8a 1e 00 00       	call   4078c8 <_ZNKSt17basic_string_viewIcSt11char_traitsIcEE4findEcm>
  405a3e:	48 89 45 e0          	mov    %rax,-0x20(%rbp)
	while (__fmt.size())
  405a42:	e9 d5 02 00 00       	jmp    405d1c <_ZNSt8__format8_ScannerIcE7_M_scanEv+0x3d6>
	    auto __cmp = __lbr <=> __rbr;
  405a47:	48 8b 55 e8          	mov    -0x18(%rbp),%rdx
  405a4b:	48 8b 45 e0          	mov    -0x20(%rbp),%rax
  405a4f:	48 39 c2             	cmp    %rax,%rdx
  405a52:	74 11                	je     405a65 <_ZNSt8__format8_ScannerIcE7_M_scanEv+0x11f>
  405a54:	48 39 c2             	cmp    %rax,%rdx
  405a57:	73 06                	jae    405a5f <_ZNSt8__format8_ScannerIcE7_M_scanEv+0x119>
  405a59:	c6 45 af ff          	movb   $0xff,-0x51(%rbp)
  405a5d:	eb 0a                	jmp    405a69 <_ZNSt8__format8_ScannerIcE7_M_scanEv+0x123>
  405a5f:	c6 45 af 01          	movb   $0x1,-0x51(%rbp)
  405a63:	eb 04                	jmp    405a69 <_ZNSt8__format8_ScannerIcE7_M_scanEv+0x123>
  405a65:	c6 45 af 00          	movb   $0x0,-0x51(%rbp)
	    if (__cmp == 0)
  405a69:	0f b6 45 af          	movzbl -0x51(%rbp),%eax
  405a6d:	89 c7                	mov    %eax,%edi
  405a6f:	e8 d2 ea ff ff       	call   404546 <_ZSteqSt15strong_orderingNSt9__cmp_cat8__unspecE>
  405a74:	84 c0                	test   %al,%al
  405a76:	74 49                	je     405ac1 <_ZNSt8__format8_ScannerIcE7_M_scanEv+0x17b>
		_M_on_chars(end());
  405a78:	48 8b 45 98          	mov    -0x68(%rbp),%rax
  405a7c:	48 8b 00             	mov    (%rax),%rax
  405a7f:	48 8b 18             	mov    (%rax),%rbx
  405a82:	48 8b 45 98          	mov    -0x68(%rbp),%rax
  405a86:	48 89 c7             	mov    %rax,%rdi
  405a89:	e8 26 03 00 00       	call   405db4 <_ZNKSt8__format8_ScannerIcE3endEv>
  405a8e:	48 89 c2             	mov    %rax,%rdx
  405a91:	48 8b 45 98          	mov    -0x68(%rbp),%rax
  405a95:	48 89 d6             	mov    %rdx,%rsi
  405a98:	48 89 c7             	mov    %rax,%rdi
  405a9b:	ff d3                	call   *%rbx
		_M_pc.advance_to(end());
  405a9d:	48 8b 45 98          	mov    -0x68(%rbp),%rax
  405aa1:	48 8d 58 08          	lea    0x8(%rax),%rbx
  405aa5:	48 8b 45 98          	mov    -0x68(%rbp),%rax
  405aa9:	48 89 c7             	mov    %rax,%rdi
  405aac:	e8 03 03 00 00       	call   405db4 <_ZNKSt8__format8_ScannerIcE3endEv>
  405ab1:	48 89 c6             	mov    %rax,%rsi
  405ab4:	48 89 df             	mov    %rbx,%rdi
  405ab7:	e8 8e 03 00 00       	call   405e4a <_ZNSt26basic_format_parse_contextIcE10advance_toEPKc>
  405abc:	e9 75 02 00 00       	jmp    405d36 <_ZNSt8__format8_ScannerIcE7_M_scanEv+0x3f0>
	    else if (__cmp < 0)
  405ac1:	0f b6 45 af          	movzbl -0x51(%rbp),%eax
  405ac5:	89 c7                	mov    %eax,%edi
  405ac7:	e8 8d ea ff ff       	call   404559 <_ZStltSt15strong_orderingNSt9__cmp_cat8__unspecE>
  405acc:	84 c0                	test   %al,%al
  405ace:	0f 84 71 01 00 00    	je     405c45 <_ZNSt8__format8_ScannerIcE7_M_scanEv+0x2ff>
		if (__lbr + 1 == __fmt.size()
  405ad4:	48 8b 45 e8          	mov    -0x18(%rbp),%rax
  405ad8:	48 8d 58 01          	lea    0x1(%rax),%rbx
  405adc:	48 8d 45 b0          	lea    -0x50(%rbp),%rax
  405ae0:	48 89 c7             	mov    %rax,%rdi
  405ae3:	e8 12 fe ff ff       	call   4058fa <_ZNKSt17basic_string_viewIcSt11char_traitsIcEE4sizeEv>
		      || (__rbr == __fmt.npos && __fmt[__lbr + 1] != '{'))
  405ae8:	48 39 c3             	cmp    %rax,%rbx
  405aeb:	74 25                	je     405b12 <_ZNSt8__format8_ScannerIcE7_M_scanEv+0x1cc>
  405aed:	48 83 7d e0 ff       	cmpq   $0xffffffffffffffff,-0x20(%rbp)
  405af2:	75 25                	jne    405b19 <_ZNSt8__format8_ScannerIcE7_M_scanEv+0x1d3>
  405af4:	48 8b 45 e8          	mov    -0x18(%rbp),%rax
  405af8:	48 8d 50 01          	lea    0x1(%rax),%rdx
  405afc:	48 8d 45 b0          	lea    -0x50(%rbp),%rax
  405b00:	48 89 d6             	mov    %rdx,%rsi
  405b03:	48 89 c7             	mov    %rax,%rdi
  405b06:	e8 01 fe ff ff       	call   40590c <_ZNKSt17basic_string_viewIcSt11char_traitsIcEEixEm>
  405b0b:	0f b6 00             	movzbl (%rax),%eax
  405b0e:	3c 7b                	cmp    $0x7b,%al
  405b10:	74 07                	je     405b19 <_ZNSt8__format8_ScannerIcE7_M_scanEv+0x1d3>
  405b12:	b8 01 00 00 00       	mov    $0x1,%eax
  405b17:	eb 05                	jmp    405b1e <_ZNSt8__format8_ScannerIcE7_M_scanEv+0x1d8>
  405b19:	b8 00 00 00 00       	mov    $0x0,%eax
		if (__lbr + 1 == __fmt.size()
  405b1e:	84 c0                	test   %al,%al
  405b20:	74 05                	je     405b27 <_ZNSt8__format8_ScannerIcE7_M_scanEv+0x1e1>
		  __format::__unmatched_left_brace_in_format_string();
  405b22:	e8 55 f5 ff ff       	call   40507c <_ZNSt8__format39__unmatched_left_brace_in_format_stringEv>
		const bool __is_escape = __fmt[__lbr + 1] == '{';
  405b27:	48 8b 45 e8          	mov    -0x18(%rbp),%rax
  405b2b:	48 8d 50 01          	lea    0x1(%rax),%rdx
  405b2f:	48 8d 45 b0          	lea    -0x50(%rbp),%rax
  405b33:	48 89 d6             	mov    %rdx,%rsi
  405b36:	48 89 c7             	mov    %rax,%rdi
  405b39:	e8 ce fd ff ff       	call   40590c <_ZNKSt17basic_string_viewIcSt11char_traitsIcEEixEm>
  405b3e:	0f b6 00             	movzbl (%rax),%eax
  405b41:	3c 7b                	cmp    $0x7b,%al
  405b43:	0f 94 c0             	sete   %al
  405b46:	88 45 d7             	mov    %al,-0x29(%rbp)
		iterator __last = begin() + __lbr + int(__is_escape);
  405b49:	48 8b 45 98          	mov    -0x68(%rbp),%rax
  405b4d:	48 89 c7             	mov    %rax,%rdi
  405b50:	e8 2f 02 00 00       	call   405d84 <_ZNKSt8__format8_ScannerIcE5beginEv>
  405b55:	0f b6 4d d7          	movzbl -0x29(%rbp),%ecx
  405b59:	48 8b 55 e8          	mov    -0x18(%rbp),%rdx
  405b5d:	48 01 ca             	add    %rcx,%rdx
  405b60:	48 01 d0             	add    %rdx,%rax
  405b63:	48 89 45 c8          	mov    %rax,-0x38(%rbp)
		_M_on_chars(__last);
  405b67:	48 8b 45 98          	mov    -0x68(%rbp),%rax
  405b6b:	48 8b 00             	mov    (%rax),%rax
  405b6e:	48 8b 08             	mov    (%rax),%rcx
  405b71:	48 8b 55 c8          	mov    -0x38(%rbp),%rdx
  405b75:	48 8b 45 98          	mov    -0x68(%rbp),%rax
  405b79:	48 89 d6             	mov    %rdx,%rsi
  405b7c:	48 89 c7             	mov    %rax,%rdi
  405b7f:	ff d1                	call   *%rcx
		_M_pc.advance_to(__last + 1);
  405b81:	48 8b 45 98          	mov    -0x68(%rbp),%rax
  405b85:	48 83 c0 08          	add    $0x8,%rax
  405b89:	48 8b 55 c8          	mov    -0x38(%rbp),%rdx
  405b8d:	48 83 c2 01          	add    $0x1,%rdx
  405b91:	48 89 d6             	mov    %rdx,%rsi
  405b94:	48 89 c7             	mov    %rax,%rdi
  405b97:	e8 ae 02 00 00       	call   405e4a <_ZNSt26basic_format_parse_contextIcE10advance_toEPKc>
		__fmt = _M_fmt_str();
  405b9c:	48 8b 45 98          	mov    -0x68(%rbp),%rax
  405ba0:	48 89 c7             	mov    %rax,%rdi
  405ba3:	e8 94 01 00 00       	call   405d3c <_ZNKSt8__format8_ScannerIcE10_M_fmt_strEv>
  405ba8:	48 89 45 b0          	mov    %rax,-0x50(%rbp)
  405bac:	48 89 55 b8          	mov    %rdx,-0x48(%rbp)
		if (__is_escape)
  405bb0:	80 7d d7 00          	cmpb   $0x0,-0x29(%rbp)
  405bb4:	74 36                	je     405bec <_ZNSt8__format8_ScannerIcE7_M_scanEv+0x2a6>
		    if (__rbr != __fmt.npos)
  405bb6:	48 83 7d e0 ff       	cmpq   $0xffffffffffffffff,-0x20(%rbp)
  405bbb:	74 10                	je     405bcd <_ZNSt8__format8_ScannerIcE7_M_scanEv+0x287>
		      __rbr -= __lbr + 2;
  405bbd:	48 8b 45 e0          	mov    -0x20(%rbp),%rax
  405bc1:	48 2b 45 e8          	sub    -0x18(%rbp),%rax
  405bc5:	48 83 e8 02          	sub    $0x2,%rax
  405bc9:	48 89 45 e0          	mov    %rax,-0x20(%rbp)
		    __lbr = __fmt.find('{');
  405bcd:	48 8d 45 b0          	lea    -0x50(%rbp),%rax
  405bd1:	ba 00 00 00 00       	mov    $0x0,%edx
  405bd6:	be 7b 00 00 00       	mov    $0x7b,%esi
  405bdb:	48 89 c7             	mov    %rax,%rdi
  405bde:	e8 e5 1c 00 00       	call   4078c8 <_ZNKSt17basic_string_viewIcSt11char_traitsIcEE4findEcm>
  405be3:	48 89 45 e8          	mov    %rax,-0x18(%rbp)
  405be7:	e9 30 01 00 00       	jmp    405d1c <_ZNSt8__format8_ScannerIcE7_M_scanEv+0x3d6>
		    _M_on_replacement_field();
  405bec:	48 8b 45 98          	mov    -0x68(%rbp),%rax
  405bf0:	48 89 c7             	mov    %rax,%rdi
  405bf3:	e8 06 1e 00 00       	call   4079fe <_ZNSt8__format8_ScannerIcE23_M_on_replacement_fieldEv>
		    __fmt = _M_fmt_str();
  405bf8:	48 8b 45 98          	mov    -0x68(%rbp),%rax
  405bfc:	48 89 c7             	mov    %rax,%rdi
  405bff:	e8 38 01 00 00       	call   405d3c <_ZNKSt8__format8_ScannerIcE10_M_fmt_strEv>
  405c04:	48 89 45 b0          	mov    %rax,-0x50(%rbp)
  405c08:	48 89 55 b8          	mov    %rdx,-0x48(%rbp)
		    __lbr = __fmt.find('{');
  405c0c:	48 8d 45 b0          	lea    -0x50(%rbp),%rax
  405c10:	ba 00 00 00 00       	mov    $0x0,%edx
  405c15:	be 7b 00 00 00       	mov    $0x7b,%esi
  405c1a:	48 89 c7             	mov    %rax,%rdi
  405c1d:	e8 a6 1c 00 00       	call   4078c8 <_ZNKSt17basic_string_viewIcSt11char_traitsIcEE4findEcm>
  405c22:	48 89 45 e8          	mov    %rax,-0x18(%rbp)
		    __rbr = __fmt.find('}');
  405c26:	48 8d 45 b0          	lea    -0x50(%rbp),%rax
  405c2a:	ba 00 00 00 00       	mov    $0x0,%edx
  405c2f:	be 7d 00 00 00       	mov    $0x7d,%esi
  405c34:	48 89 c7             	mov    %rax,%rdi
  405c37:	e8 8c 1c 00 00       	call   4078c8 <_ZNKSt17basic_string_viewIcSt11char_traitsIcEE4findEcm>
  405c3c:	48 89 45 e0          	mov    %rax,-0x20(%rbp)
  405c40:	e9 d7 00 00 00       	jmp    405d1c <_ZNSt8__format8_ScannerIcE7_M_scanEv+0x3d6>
		if (++__rbr == __fmt.size() || __fmt[__rbr] != '}')
  405c45:	48 83 45 e0 01       	addq   $0x1,-0x20(%rbp)
  405c4a:	48 8d 45 b0          	lea    -0x50(%rbp),%rax
  405c4e:	48 89 c7             	mov    %rax,%rdi
  405c51:	e8 a4 fc ff ff       	call   4058fa <_ZNKSt17basic_string_viewIcSt11char_traitsIcEE4sizeEv>
  405c56:	48 39 45 e0          	cmp    %rax,-0x20(%rbp)
  405c5a:	74 1a                	je     405c76 <_ZNSt8__format8_ScannerIcE7_M_scanEv+0x330>
  405c5c:	48 8b 55 e0          	mov    -0x20(%rbp),%rdx
  405c60:	48 8d 45 b0          	lea    -0x50(%rbp),%rax
  405c64:	48 89 d6             	mov    %rdx,%rsi
  405c67:	48 89 c7             	mov    %rax,%rdi
  405c6a:	e8 9d fc ff ff       	call   40590c <_ZNKSt17basic_string_viewIcSt11char_traitsIcEEixEm>
  405c6f:	0f b6 00             	movzbl (%rax),%eax
  405c72:	3c 7d                	cmp    $0x7d,%al
  405c74:	74 07                	je     405c7d <_ZNSt8__format8_ScannerIcE7_M_scanEv+0x337>
  405c76:	b8 01 00 00 00       	mov    $0x1,%eax
  405c7b:	eb 05                	jmp    405c82 <_ZNSt8__format8_ScannerIcE7_M_scanEv+0x33c>
  405c7d:	b8 00 00 00 00       	mov    $0x0,%eax
  405c82:	84 c0                	test   %al,%al
  405c84:	74 05                	je     405c8b <_ZNSt8__format8_ScannerIcE7_M_scanEv+0x345>
		  __format::__unmatched_right_brace_in_format_string();
  405c86:	e8 ff f3 ff ff       	call   40508a <_ZNSt8__format40__unmatched_right_brace_in_format_stringEv>
		iterator __last = begin() + __rbr;
  405c8b:	48 8b 45 98          	mov    -0x68(%rbp),%rax
  405c8f:	48 89 c7             	mov    %rax,%rdi
  405c92:	e8 ed 00 00 00       	call   405d84 <_ZNKSt8__format8_ScannerIcE5beginEv>
  405c97:	48 8b 55 e0          	mov    -0x20(%rbp),%rdx
  405c9b:	48 01 d0             	add    %rdx,%rax
  405c9e:	48 89 45 d8          	mov    %rax,-0x28(%rbp)
		_M_on_chars(__last);
  405ca2:	48 8b 45 98          	mov    -0x68(%rbp),%rax
  405ca6:	48 8b 00             	mov    (%rax),%rax
  405ca9:	48 8b 08             	mov    (%rax),%rcx
  405cac:	48 8b 55 d8          	mov    -0x28(%rbp),%rdx
  405cb0:	48 8b 45 98          	mov    -0x68(%rbp),%rax
  405cb4:	48 89 d6             	mov    %rdx,%rsi
  405cb7:	48 89 c7             	mov    %rax,%rdi
  405cba:	ff d1                	call   *%rcx
		_M_pc.advance_to(__last + 1);
  405cbc:	48 8b 45 98          	mov    -0x68(%rbp),%rax
  405cc0:	48 83 c0 08          	add    $0x8,%rax
  405cc4:	48 8b 55 d8          	mov    -0x28(%rbp),%rdx
  405cc8:	48 83 c2 01          	add    $0x1,%rdx
  405ccc:	48 89 d6             	mov    %rdx,%rsi
  405ccf:	48 89 c7             	mov    %rax,%rdi
  405cd2:	e8 73 01 00 00       	call   405e4a <_ZNSt26basic_format_parse_contextIcE10advance_toEPKc>
		__fmt = _M_fmt_str();
  405cd7:	48 8b 45 98          	mov    -0x68(%rbp),%rax
  405cdb:	48 89 c7             	mov    %rax,%rdi
  405cde:	e8 59 00 00 00       	call   405d3c <_ZNKSt8__format8_ScannerIcE10_M_fmt_strEv>
  405ce3:	48 89 45 b0          	mov    %rax,-0x50(%rbp)
  405ce7:	48 89 55 b8          	mov    %rdx,-0x48(%rbp)
		if (__lbr != __fmt.npos)
  405ceb:	48 83 7d e8 ff       	cmpq   $0xffffffffffffffff,-0x18(%rbp)
  405cf0:	74 10                	je     405d02 <_ZNSt8__format8_ScannerIcE7_M_scanEv+0x3bc>
		  __lbr -= __rbr + 1;
  405cf2:	48 8b 45 e8          	mov    -0x18(%rbp),%rax
  405cf6:	48 2b 45 e0          	sub    -0x20(%rbp),%rax
  405cfa:	48 83 e8 01          	sub    $0x1,%rax
  405cfe:	48 89 45 e8          	mov    %rax,-0x18(%rbp)
		__rbr = __fmt.find('}');
  405d02:	48 8d 45 b0          	lea    -0x50(%rbp),%rax
  405d06:	ba 00 00 00 00       	mov    $0x0,%edx
  405d0b:	be 7d 00 00 00       	mov    $0x7d,%esi
  405d10:	48 89 c7             	mov    %rax,%rdi
  405d13:	e8 b0 1b 00 00       	call   4078c8 <_ZNKSt17basic_string_viewIcSt11char_traitsIcEE4findEcm>
  405d18:	48 89 45 e0          	mov    %rax,-0x20(%rbp)
	while (__fmt.size())
  405d1c:	48 8d 45 b0          	lea    -0x50(%rbp),%rax
  405d20:	48 89 c7             	mov    %rax,%rdi
  405d23:	e8 d2 fb ff ff       	call   4058fa <_ZNKSt17basic_string_viewIcSt11char_traitsIcEE4sizeEv>
  405d28:	48 85 c0             	test   %rax,%rax
  405d2b:	0f 95 c0             	setne  %al
  405d2e:	84 c0                	test   %al,%al
  405d30:	0f 85 11 fd ff ff    	jne    405a47 <_ZNSt8__format8_ScannerIcE7_M_scanEv+0x101>
      }
  405d36:	48 8b 5d f8          	mov    -0x8(%rbp),%rbx
  405d3a:	c9                   	leave
  405d3b:	c3                   	ret

0000000000405d3c <_ZNKSt8__format8_ScannerIcE10_M_fmt_strEv>:
      _M_fmt_str() const noexcept
  405d3c:	55                   	push   %rbp
  405d3d:	48 89 e5             	mov    %rsp,%rbp
  405d40:	53                   	push   %rbx
  405d41:	48 83 ec 28          	sub    $0x28,%rsp
  405d45:	48 89 7d d8          	mov    %rdi,-0x28(%rbp)
      { return {begin(), end()}; }
  405d49:	48 8b 45 d8          	mov    -0x28(%rbp),%rax
  405d4d:	48 89 c7             	mov    %rax,%rdi
  405d50:	e8 2f 00 00 00       	call   405d84 <_ZNKSt8__format8_ScannerIcE5beginEv>
  405d55:	48 89 c3             	mov    %rax,%rbx
  405d58:	48 8b 45 d8          	mov    -0x28(%rbp),%rax
  405d5c:	48 89 c7             	mov    %rax,%rdi
  405d5f:	e8 50 00 00 00       	call   405db4 <_ZNKSt8__format8_ScannerIcE3endEv>
  405d64:	48 89 c2             	mov    %rax,%rdx
  405d67:	48 8d 45 e0          	lea    -0x20(%rbp),%rax
  405d6b:	48 89 de             	mov    %rbx,%rsi
  405d6e:	48 89 c7             	mov    %rax,%rdi
  405d71:	e8 6e 00 00 00       	call   405de4 <_ZNSt17basic_string_viewIcSt11char_traitsIcEEC1IPKcS5_EET_T0_>
  405d76:	48 8b 45 e0          	mov    -0x20(%rbp),%rax
  405d7a:	48 8b 55 e8          	mov    -0x18(%rbp),%rdx
  405d7e:	48 8b 5d f8          	mov    -0x8(%rbp),%rbx
  405d82:	c9                   	leave
  405d83:	c3                   	ret

0000000000405d84 <_ZNKSt8__format8_ScannerIcE5beginEv>:
      constexpr iterator begin() const noexcept { return _M_pc.begin(); }
  405d84:	55                   	push   %rbp
  405d85:	48 89 e5             	mov    %rsp,%rbp
  405d88:	48 83 ec 10          	sub    $0x10,%rsp
  405d8c:	48 89 7d f8          	mov    %rdi,-0x8(%rbp)
  405d90:	48 8b 45 f8          	mov    -0x8(%rbp),%rax
  405d94:	48 83 c0 08          	add    $0x8,%rax
  405d98:	48 89 c7             	mov    %rax,%rdi
  405d9b:	e8 02 00 00 00       	call   405da2 <_ZNKSt26basic_format_parse_contextIcE5beginEv>
  405da0:	c9                   	leave
  405da1:	c3                   	ret

0000000000405da2 <_ZNKSt26basic_format_parse_contextIcE5beginEv>:
      constexpr const_iterator begin() const noexcept { return _M_begin; }
  405da2:	55                   	push   %rbp
  405da3:	48 89 e5             	mov    %rsp,%rbp
  405da6:	48 89 7d f8          	mov    %rdi,-0x8(%rbp)
  405daa:	48 8b 45 f8          	mov    -0x8(%rbp),%rax
  405dae:	48 8b 00             	mov    (%rax),%rax
  405db1:	5d                   	pop    %rbp
  405db2:	c3                   	ret
  405db3:	90                   	nop

0000000000405db4 <_ZNKSt8__format8_ScannerIcE3endEv>:
      constexpr iterator end() const noexcept { return _M_pc.end(); }
  405db4:	55                   	push   %rbp
  405db5:	48 89 e5             	mov    %rsp,%rbp
  405db8:	48 83 ec 10          	sub    $0x10,%rsp
  405dbc:	48 89 7d f8          	mov    %rdi,-0x8(%rbp)
  405dc0:	48 8b 45 f8          	mov    -0x8(%rbp),%rax
  405dc4:	48 83 c0 08          	add    $0x8,%rax
  405dc8:	48 89 c7             	mov    %rax,%rdi
  405dcb:	e8 02 00 00 00       	call   405dd2 <_ZNKSt26basic_format_parse_contextIcE3endEv>
  405dd0:	c9                   	leave
  405dd1:	c3                   	ret

0000000000405dd2 <_ZNKSt26basic_format_parse_contextIcE3endEv>:
      constexpr const_iterator end() const noexcept { return _M_end; }
  405dd2:	55                   	push   %rbp
  405dd3:	48 89 e5             	mov    %rsp,%rbp
  405dd6:	48 89 7d f8          	mov    %rdi,-0x8(%rbp)
  405dda:	48 8b 45 f8          	mov    -0x8(%rbp),%rax
  405dde:	48 8b 40 08          	mov    0x8(%rax),%rax
  405de2:	5d                   	pop    %rbp
  405de3:	c3                   	ret

0000000000405de4 <_ZNSt17basic_string_viewIcSt11char_traitsIcEEC1IPKcS5_EET_T0_>:
	basic_string_view(_It __first, _End __last)
  405de4:	55                   	push   %rbp
  405de5:	48 89 e5             	mov    %rsp,%rbp
  405de8:	48 83 ec 20          	sub    $0x20,%rsp
  405dec:	48 89 7d f8          	mov    %rdi,-0x8(%rbp)
  405df0:	48 89 75 f0          	mov    %rsi,-0x10(%rbp)
  405df4:	48 89 55 e8          	mov    %rdx,-0x18(%rbp)
	: _M_len(__last - __first), _M_str(std::to_address(__first))
  405df8:	48 8b 45 e8          	mov    -0x18(%rbp),%rax
  405dfc:	48 2b 45 f0          	sub    -0x10(%rbp),%rax
  405e00:	48 89 c2             	mov    %rax,%rdx
  405e03:	48 8b 45 f8          	mov    -0x8(%rbp),%rax
  405e07:	48 89 10             	mov    %rdx,(%rax)
  405e0a:	48 8b 45 f0          	mov    -0x10(%rbp),%rax
  405e0e:	48 89 c7             	mov    %rax,%rdi
  405e11:	e8 0b 00 00 00       	call   405e21 <_ZSt10to_addressIKcEPT_S2_>
  405e16:	48 8b 55 f8          	mov    -0x8(%rbp),%rdx
  405e1a:	48 89 42 08          	mov    %rax,0x8(%rdx)
	{ }
  405e1e:	90                   	nop
  405e1f:	c9                   	leave
  405e20:	c3                   	ret

0000000000405e21 <_ZSt10to_addressIKcEPT_S2_>:
   * @return @c __ptr
   * @ingroup pointer_abstractions
  */
  template<typename _Tp>
    constexpr _Tp*
    to_address(_Tp* __ptr) noexcept
  405e21:	55                   	push   %rbp
  405e22:	48 89 e5             	mov    %rsp,%rbp
  405e25:	48 83 ec 10          	sub    $0x10,%rsp
  405e29:	48 89 7d f8          	mov    %rdi,-0x8(%rbp)
    { return std::__to_address(__ptr); }
  405e2d:	48 8b 45 f8          	mov    -0x8(%rbp),%rax
  405e31:	48 89 c7             	mov    %rax,%rdi
  405e34:	e8 02 00 00 00       	call   405e3b <_ZSt12__to_addressIKcEPT_S2_>
  405e39:	c9                   	leave
  405e3a:	c3                   	ret

0000000000405e3b <_ZSt12__to_addressIKcEPT_S2_>:
    __to_address(_Tp* __ptr) noexcept
  405e3b:	55                   	push   %rbp
  405e3c:	48 89 e5             	mov    %rsp,%rbp
  405e3f:	48 89 7d f8          	mov    %rdi,-0x8(%rbp)
      return __ptr;
  405e43:	48 8b 45 f8          	mov    -0x8(%rbp),%rax
    }
  405e47:	5d                   	pop    %rbp
  405e48:	c3                   	ret
  405e49:	90                   	nop

0000000000405e4a <_ZNSt26basic_format_parse_contextIcE10advance_toEPKc>:
      advance_to(const_iterator __it) noexcept
  405e4a:	55                   	push   %rbp
  405e4b:	48 89 e5             	mov    %rsp,%rbp
  405e4e:	48 89 7d f8          	mov    %rdi,-0x8(%rbp)
  405e52:	48 89 75 f0          	mov    %rsi,-0x10(%rbp)
      { _M_begin = __it; }
  405e56:	48 8b 45 f8          	mov    -0x8(%rbp),%rax
  405e5a:	48 8b 55 f0          	mov    -0x10(%rbp),%rdx
  405e5e:	48 89 10             	mov    %rdx,(%rax)
  405e61:	90                   	nop
  405e62:	5d                   	pop    %rbp
  405e63:	c3                   	ret

0000000000405e64 <_ZNSt26basic_format_parse_contextIcE11next_arg_idEv>:
      next_arg_id()
  405e64:	55                   	push   %rbp
  405e65:	48 89 e5             	mov    %rsp,%rbp
  405e68:	48 83 ec 10          	sub    $0x10,%rsp
  405e6c:	48 89 7d f8          	mov    %rdi,-0x8(%rbp)
	if (_M_indexing == _Manual)
  405e70:	48 8b 45 f8          	mov    -0x8(%rbp),%rax
  405e74:	8b 40 10             	mov    0x10(%rax),%eax
  405e77:	83 f8 01             	cmp    $0x1,%eax
  405e7a:	75 05                	jne    405e81 <_ZNSt26basic_format_parse_contextIcE11next_arg_idEv+0x1d>
	  __format::__conflicting_indexing_in_format_string();
  405e7c:	e8 17 f2 ff ff       	call   405098 <_ZNSt8__format39__conflicting_indexing_in_format_stringEv>
	_M_indexing = _Auto;
  405e81:	48 8b 45 f8          	mov    -0x8(%rbp),%rax
  405e85:	c7 40 10 02 00 00 00 	movl   $0x2,0x10(%rax)
	if (std::is_constant_evaluated())
  405e8c:	e8 aa e6 ff ff       	call   40453b <_ZSt21is_constant_evaluatedv>
  405e91:	84 c0                	test   %al,%al
  405e93:	74 1a                	je     405eaf <_ZNSt26basic_format_parse_contextIcE11next_arg_idEv+0x4b>
	  if (_M_next_arg_id == _M_num_args)
  405e95:	48 8b 45 f8          	mov    -0x8(%rbp),%rax
  405e99:	48 8b 50 18          	mov    0x18(%rax),%rdx
  405e9d:	48 8b 45 f8          	mov    -0x8(%rbp),%rax
  405ea1:	48 8b 40 20          	mov    0x20(%rax),%rax
  405ea5:	48 39 c2             	cmp    %rax,%rdx
  405ea8:	75 05                	jne    405eaf <_ZNSt26basic_format_parse_contextIcE11next_arg_idEv+0x4b>
	    __format::__invalid_arg_id_in_format_string();
  405eaa:	e8 f7 f1 ff ff       	call   4050a6 <_ZNSt8__format33__invalid_arg_id_in_format_stringEv>
	return _M_next_arg_id++;
  405eaf:	48 8b 45 f8          	mov    -0x8(%rbp),%rax
  405eb3:	48 8b 40 18          	mov    0x18(%rax),%rax
  405eb7:	48 8d 48 01          	lea    0x1(%rax),%rcx
  405ebb:	48 8b 55 f8          	mov    -0x8(%rbp),%rdx
  405ebf:	48 89 4a 18          	mov    %rcx,0x18(%rdx)
      }
  405ec3:	c9                   	leave
  405ec4:	c3                   	ret
  405ec5:	90                   	nop

0000000000405ec6 <_ZZNSt8__format15__formatter_strIcE5parseERSt26basic_format_parse_contextIcEENKUlvE_clEv>:
	auto __finalize = [this, &__spec] {
  405ec6:	55                   	push   %rbp
  405ec7:	48 89 e5             	mov    %rsp,%rbp
  405eca:	48 89 7d f8          	mov    %rdi,-0x8(%rbp)
	  _M_spec = __spec;
  405ece:	48 8b 45 f8          	mov    -0x8(%rbp),%rax
  405ed2:	48 8b 50 08          	mov    0x8(%rax),%rdx
  405ed6:	48 8b 45 f8          	mov    -0x8(%rbp),%rax
  405eda:	48 8b 00             	mov    (%rax),%rax
  405edd:	48 8b 0a             	mov    (%rdx),%rcx
  405ee0:	48 89 08             	mov    %rcx,(%rax)
  405ee3:	8b 52 08             	mov    0x8(%rdx),%edx
  405ee6:	89 50 08             	mov    %edx,0x8(%rax)
	auto __finalize = [this, &__spec] {
  405ee9:	90                   	nop
  405eea:	5d                   	pop    %rbp
  405eeb:	c3                   	ret

0000000000405eec <_ZZNSt8__format15__formatter_strIcE5parseERSt26basic_format_parse_contextIcEENKUlvE0_clEv>:
	auto __finished = [&] {
  405eec:	55                   	push   %rbp
  405eed:	48 89 e5             	mov    %rsp,%rbp
  405ef0:	48 83 ec 10          	sub    $0x10,%rsp
  405ef4:	48 89 7d f8          	mov    %rdi,-0x8(%rbp)
	  if (__first == __last || *__first == '}')
  405ef8:	48 8b 45 f8          	mov    -0x8(%rbp),%rax
  405efc:	48 8b 00             	mov    (%rax),%rax
  405eff:	48 8b 10             	mov    (%rax),%rdx
  405f02:	48 8b 45 f8          	mov    -0x8(%rbp),%rax
  405f06:	48 8b 40 08          	mov    0x8(%rax),%rax
  405f0a:	48 8b 00             	mov    (%rax),%rax
  405f0d:	48 39 c2             	cmp    %rax,%rdx
  405f10:	74 11                	je     405f23 <_ZZNSt8__format15__formatter_strIcE5parseERSt26basic_format_parse_contextIcEENKUlvE0_clEv+0x37>
  405f12:	48 8b 45 f8          	mov    -0x8(%rbp),%rax
  405f16:	48 8b 00             	mov    (%rax),%rax
  405f19:	48 8b 00             	mov    (%rax),%rax
  405f1c:	0f b6 00             	movzbl (%rax),%eax
  405f1f:	3c 7d                	cmp    $0x7d,%al
  405f21:	75 17                	jne    405f3a <_ZZNSt8__format15__formatter_strIcE5parseERSt26basic_format_parse_contextIcEENKUlvE0_clEv+0x4e>
	      __finalize();
  405f23:	48 8b 45 f8          	mov    -0x8(%rbp),%rax
  405f27:	48 8b 40 10          	mov    0x10(%rax),%rax
  405f2b:	48 89 c7             	mov    %rax,%rdi
  405f2e:	e8 93 ff ff ff       	call   405ec6 <_ZZNSt8__format15__formatter_strIcE5parseERSt26basic_format_parse_contextIcEENKUlvE_clEv>
	      return true;
  405f33:	b8 01 00 00 00       	mov    $0x1,%eax
  405f38:	eb 05                	jmp    405f3f <_ZZNSt8__format15__formatter_strIcE5parseERSt26basic_format_parse_contextIcEENKUlvE0_clEv+0x53>
	  return false;
  405f3a:	b8 00 00 00 00       	mov    $0x0,%eax
	auto __finished = [&] {
  405f3f:	c9                   	leave
  405f40:	c3                   	ret
  405f41:	90                   	nop

0000000000405f42 <_ZNSt8__format15__formatter_strIcE5parseERSt26basic_format_parse_contextIcE>:
      parse(basic_format_parse_context<_CharT>& __pc)
  405f42:	55                   	push   %rbp
  405f43:	48 89 e5             	mov    %rsp,%rbp
  405f46:	48 83 ec 60          	sub    $0x60,%rsp
  405f4a:	48 89 7d a8          	mov    %rdi,-0x58(%rbp)
  405f4e:	48 89 75 a0          	mov    %rsi,-0x60(%rbp)
	auto __first = __pc.begin();
  405f52:	48 8b 45 a0          	mov    -0x60(%rbp),%rax
  405f56:	48 89 c7             	mov    %rax,%rdi
  405f59:	e8 44 fe ff ff       	call   405da2 <_ZNKSt26basic_format_parse_contextIcE5beginEv>
  405f5e:	48 89 45 f8          	mov    %rax,-0x8(%rbp)
	const auto __last = __pc.end();
  405f62:	48 8b 45 a0          	mov    -0x60(%rbp),%rax
  405f66:	48 89 c7             	mov    %rax,%rdi
  405f69:	e8 64 fe ff ff       	call   405dd2 <_ZNKSt26basic_format_parse_contextIcE3endEv>
  405f6e:	48 89 45 f0          	mov    %rax,-0x10(%rbp)
	_Spec<_CharT> __spec{};
  405f72:	48 c7 45 e4 00 00 00 	movq   $0x0,-0x1c(%rbp)
  405f79:	00
  405f7a:	c7 45 ec 00 00 00 00 	movl   $0x0,-0x14(%rbp)
  405f81:	c7 45 ec 20 00 00 00 	movl   $0x20,-0x14(%rbp)
	auto __finalize = [this, &__spec] {
  405f88:	48 8b 45 a8          	mov    -0x58(%rbp),%rax
  405f8c:	48 89 45 d0          	mov    %rax,-0x30(%rbp)
  405f90:	48 8d 45 e4          	lea    -0x1c(%rbp),%rax
  405f94:	48 89 45 d8          	mov    %rax,-0x28(%rbp)
	auto __finished = [&] {
  405f98:	48 8d 45 f8          	lea    -0x8(%rbp),%rax
  405f9c:	48 89 45 b0          	mov    %rax,-0x50(%rbp)
  405fa0:	48 8d 45 f0          	lea    -0x10(%rbp),%rax
  405fa4:	48 89 45 b8          	mov    %rax,-0x48(%rbp)
  405fa8:	48 8d 45 d0          	lea    -0x30(%rbp),%rax
  405fac:	48 89 45 c0          	mov    %rax,-0x40(%rbp)
	if (__finished())
  405fb0:	48 8d 45 b0          	lea    -0x50(%rbp),%rax
  405fb4:	48 89 c7             	mov    %rax,%rdi
  405fb7:	e8 30 ff ff ff       	call   405eec <_ZZNSt8__format15__formatter_strIcE5parseERSt26basic_format_parse_contextIcEENKUlvE0_clEv>
  405fbc:	84 c0                	test   %al,%al
  405fbe:	74 09                	je     405fc9 <_ZNSt8__format15__formatter_strIcE5parseERSt26basic_format_parse_contextIcE+0x87>
	  return __first;
  405fc0:	48 8b 45 f8          	mov    -0x8(%rbp),%rax
  405fc4:	e9 ca 00 00 00       	jmp    406093 <_ZNSt8__format15__formatter_strIcE5parseERSt26basic_format_parse_contextIcE+0x151>
	__first = __spec._M_parse_fill_and_align(__first, __last);
  405fc9:	48 8b 55 f0          	mov    -0x10(%rbp),%rdx
  405fcd:	48 8b 4d f8          	mov    -0x8(%rbp),%rcx
  405fd1:	48 8d 45 e4          	lea    -0x1c(%rbp),%rax
  405fd5:	48 89 ce             	mov    %rcx,%rsi
  405fd8:	48 89 c7             	mov    %rax,%rdi
  405fdb:	e8 52 1d 00 00       	call   407d32 <_ZNSt8__format5_SpecIcE23_M_parse_fill_and_alignEPKcS3_>
  405fe0:	48 89 45 f8          	mov    %rax,-0x8(%rbp)
	if (__finished())
  405fe4:	48 8d 45 b0          	lea    -0x50(%rbp),%rax
  405fe8:	48 89 c7             	mov    %rax,%rdi
  405feb:	e8 fc fe ff ff       	call   405eec <_ZZNSt8__format15__formatter_strIcE5parseERSt26basic_format_parse_contextIcEENKUlvE0_clEv>
  405ff0:	84 c0                	test   %al,%al
  405ff2:	74 09                	je     405ffd <_ZNSt8__format15__formatter_strIcE5parseERSt26basic_format_parse_contextIcE+0xbb>
	  return __first;
  405ff4:	48 8b 45 f8          	mov    -0x8(%rbp),%rax
  405ff8:	e9 96 00 00 00       	jmp    406093 <_ZNSt8__format15__formatter_strIcE5parseERSt26basic_format_parse_contextIcE+0x151>
	__first = __spec._M_parse_width(__first, __last, __pc);
  405ffd:	48 8b 55 f0          	mov    -0x10(%rbp),%rdx
  406001:	48 8b 75 f8          	mov    -0x8(%rbp),%rsi
  406005:	48 8b 4d a0          	mov    -0x60(%rbp),%rcx
  406009:	48 8d 45 e4          	lea    -0x1c(%rbp),%rax
  40600d:	48 89 c7             	mov    %rax,%rdi
  406010:	e8 af 1e 00 00       	call   407ec4 <_ZNSt8__format5_SpecIcE14_M_parse_widthEPKcS3_RSt26basic_format_parse_contextIcE>
  406015:	48 89 45 f8          	mov    %rax,-0x8(%rbp)
	if (__finished())
  406019:	48 8d 45 b0          	lea    -0x50(%rbp),%rax
  40601d:	48 89 c7             	mov    %rax,%rdi
  406020:	e8 c7 fe ff ff       	call   405eec <_ZZNSt8__format15__formatter_strIcE5parseERSt26basic_format_parse_contextIcEENKUlvE0_clEv>
  406025:	84 c0                	test   %al,%al
  406027:	74 06                	je     40602f <_ZNSt8__format15__formatter_strIcE5parseERSt26basic_format_parse_contextIcE+0xed>
	  return __first;
  406029:	48 8b 45 f8          	mov    -0x8(%rbp),%rax
  40602d:	eb 64                	jmp    406093 <_ZNSt8__format15__formatter_strIcE5parseERSt26basic_format_parse_contextIcE+0x151>
	__first = __spec._M_parse_precision(__first, __last, __pc);
  40602f:	48 8b 55 f0          	mov    -0x10(%rbp),%rdx
  406033:	48 8b 75 f8          	mov    -0x8(%rbp),%rsi
  406037:	48 8b 4d a0          	mov    -0x60(%rbp),%rcx
  40603b:	48 8d 45 e4          	lea    -0x1c(%rbp),%rax
  40603f:	48 89 c7             	mov    %rax,%rdi
  406042:	e8 1b 1f 00 00       	call   407f62 <_ZNSt8__format5_SpecIcE18_M_parse_precisionEPKcS3_RSt26basic_format_parse_contextIcE>
  406047:	48 89 45 f8          	mov    %rax,-0x8(%rbp)
	if (__finished())
  40604b:	48 8d 45 b0          	lea    -0x50(%rbp),%rax
  40604f:	48 89 c7             	mov    %rax,%rdi
  406052:	e8 95 fe ff ff       	call   405eec <_ZZNSt8__format15__formatter_strIcE5parseERSt26basic_format_parse_contextIcEENKUlvE0_clEv>
  406057:	84 c0                	test   %al,%al
  406059:	74 06                	je     406061 <_ZNSt8__format15__formatter_strIcE5parseERSt26basic_format_parse_contextIcE+0x11f>
	  return __first;
  40605b:	48 8b 45 f8          	mov    -0x8(%rbp),%rax
  40605f:	eb 32                	jmp    406093 <_ZNSt8__format15__formatter_strIcE5parseERSt26basic_format_parse_contextIcE+0x151>
	if (*__first == 's')
  406061:	48 8b 45 f8          	mov    -0x8(%rbp),%rax
  406065:	0f b6 00             	movzbl (%rax),%eax
  406068:	3c 73                	cmp    $0x73,%al
  40606a:	75 0c                	jne    406078 <_ZNSt8__format15__formatter_strIcE5parseERSt26basic_format_parse_contextIcE+0x136>
	  ++__first;
  40606c:	48 8b 45 f8          	mov    -0x8(%rbp),%rax
  406070:	48 83 c0 01          	add    $0x1,%rax
  406074:	48 89 45 f8          	mov    %rax,-0x8(%rbp)
	if (__finished())
  406078:	48 8d 45 b0          	lea    -0x50(%rbp),%rax
  40607c:	48 89 c7             	mov    %rax,%rdi
  40607f:	e8 68 fe ff ff       	call   405eec <_ZZNSt8__format15__formatter_strIcE5parseERSt26basic_format_parse_contextIcEENKUlvE0_clEv>
  406084:	84 c0                	test   %al,%al
  406086:	74 06                	je     40608e <_ZNSt8__format15__formatter_strIcE5parseERSt26basic_format_parse_contextIcE+0x14c>
	  return __first;
  406088:	48 8b 45 f8          	mov    -0x8(%rbp),%rax
  40608c:	eb 05                	jmp    406093 <_ZNSt8__format15__formatter_strIcE5parseERSt26basic_format_parse_contextIcE+0x151>
	__format::__failed_to_parse_format_spec();
  40608e:	e8 21 f0 ff ff       	call   4050b4 <_ZNSt8__format29__failed_to_parse_format_specEv>
      }
  406093:	c9                   	leave
  406094:	c3                   	ret

0000000000406095 <_ZSt12__to_chars_iIhESt15to_chars_resultPcS1_T_i>:
    __to_chars_i(char* __first, char* __last, _Tp __value, int __base = 10)
  406095:	55                   	push   %rbp
  406096:	48 89 e5             	mov    %rsp,%rbp
  406099:	48 83 ec 30          	sub    $0x30,%rsp
  40609d:	48 89 7d e8          	mov    %rdi,-0x18(%rbp)
  4060a1:	48 89 75 e0          	mov    %rsi,-0x20(%rbp)
  4060a5:	89 d0                	mov    %edx,%eax
  4060a7:	89 4d d8             	mov    %ecx,-0x28(%rbp)
  4060aa:	88 45 dc             	mov    %al,-0x24(%rbp)
  4060ad:	b8 00 00 00 00       	mov    $0x0,%eax
      __glibcxx_assert(2 <= __base && __base <= 36);
  4060b2:	84 c0                	test   %al,%al
  4060b4:	74 30                	je     4060e6 <_ZSt12__to_chars_iIhESt15to_chars_resultPcS1_T_i+0x51>
  4060b6:	83 7d d8 01          	cmpl   $0x1,-0x28(%rbp)
  4060ba:	0f 9e c0             	setle  %al
  4060bd:	0f b6 c0             	movzbl %al,%eax
  4060c0:	48 85 c0             	test   %rax,%rax
  4060c3:	75 0f                	jne    4060d4 <_ZSt12__to_chars_iIhESt15to_chars_resultPcS1_T_i+0x3f>
  4060c5:	83 7d d8 24          	cmpl   $0x24,-0x28(%rbp)
  4060c9:	0f 9f c0             	setg   %al
  4060cc:	0f b6 c0             	movzbl %al,%eax
  4060cf:	48 85 c0             	test   %rax,%rax
  4060d2:	74 07                	je     4060db <_ZSt12__to_chars_iIhESt15to_chars_resultPcS1_T_i+0x46>
  4060d4:	b8 01 00 00 00       	mov    $0x1,%eax
  4060d9:	eb 05                	jmp    4060e0 <_ZSt12__to_chars_iIhESt15to_chars_resultPcS1_T_i+0x4b>
  4060db:	b8 00 00 00 00       	mov    $0x0,%eax
  4060e0:	0f b6 c0             	movzbl %al,%eax
  4060e3:	48 85 c0             	test   %rax,%rax
      _Up __unsigned_val = __value;
  4060e6:	0f b6 45 dc          	movzbl -0x24(%rbp),%eax
  4060ea:	89 45 fc             	mov    %eax,-0x4(%rbp)
      if (__first == __last) [[__unlikely__]]
  4060ed:	48 8b 45 e8          	mov    -0x18(%rbp),%rax
  4060f1:	48 3b 45 e0          	cmp    -0x20(%rbp),%rax
  4060f5:	75 20                	jne    406117 <_ZSt12__to_chars_iIhESt15to_chars_resultPcS1_T_i+0x82>
	return { __last, errc::value_too_large };
  4060f7:	4c 8b 45 e0          	mov    -0x20(%rbp),%r8
  4060fb:	4c 89 ca             	mov    %r9,%rdx
  4060fe:	48 b8 00 00 00 00 ff 	movabs $0xffffffff00000000,%rax
  406105:	ff ff ff
  406108:	48 21 d0             	and    %rdx,%rax
  40610b:	48 83 c8 4b          	or     $0x4b,%rax
  40610f:	49 89 c1             	mov    %rax,%r9
  406112:	e9 f3 00 00 00       	jmp    40620a <_ZSt12__to_chars_iIhESt15to_chars_resultPcS1_T_i+0x175>
      if (__value == 0)
  406117:	80 7d dc 00          	cmpb   $0x0,-0x24(%rbp)
  40611b:	75 2a                	jne    406147 <_ZSt12__to_chars_iIhESt15to_chars_resultPcS1_T_i+0xb2>
	  *__first = '0';
  40611d:	48 8b 45 e8          	mov    -0x18(%rbp),%rax
  406121:	c6 00 30             	movb   $0x30,(%rax)
	  return { __first + 1, errc{} };
  406124:	48 8b 45 e8          	mov    -0x18(%rbp),%rax
  406128:	48 83 c0 01          	add    $0x1,%rax
  40612c:	49 89 c0             	mov    %rax,%r8
  40612f:	4c 89 ca             	mov    %r9,%rdx
  406132:	48 b8 00 00 00 00 ff 	movabs $0xffffffff00000000,%rax
  406139:	ff ff ff
  40613c:	48 21 d0             	and    %rdx,%rax
  40613f:	49 89 c1             	mov    %rax,%r9
  406142:	e9 c3 00 00 00       	jmp    40620a <_ZSt12__to_chars_iIhESt15to_chars_resultPcS1_T_i+0x175>
      switch (__base)
  406147:	83 7d d8 10          	cmpl   $0x10,-0x28(%rbp)
  40614b:	74 28                	je     406175 <_ZSt12__to_chars_iIhESt15to_chars_resultPcS1_T_i+0xe0>
  40614d:	83 7d d8 10          	cmpl   $0x10,-0x28(%rbp)
  406151:	0f 8f 96 00 00 00    	jg     4061ed <_ZSt12__to_chars_iIhESt15to_chars_resultPcS1_T_i+0x158>
  406157:	83 7d d8 0a          	cmpl   $0xa,-0x28(%rbp)
  40615b:	74 36                	je     406193 <_ZSt12__to_chars_iIhESt15to_chars_resultPcS1_T_i+0xfe>
  40615d:	83 7d d8 0a          	cmpl   $0xa,-0x28(%rbp)
  406161:	0f 8f 86 00 00 00    	jg     4061ed <_ZSt12__to_chars_iIhESt15to_chars_resultPcS1_T_i+0x158>
  406167:	83 7d d8 02          	cmpl   $0x2,-0x28(%rbp)
  40616b:	74 62                	je     4061cf <_ZSt12__to_chars_iIhESt15to_chars_resultPcS1_T_i+0x13a>
  40616d:	83 7d d8 08          	cmpl   $0x8,-0x28(%rbp)
  406171:	74 3e                	je     4061b1 <_ZSt12__to_chars_iIhESt15to_chars_resultPcS1_T_i+0x11c>
  406173:	eb 78                	jmp    4061ed <_ZSt12__to_chars_iIhESt15to_chars_resultPcS1_T_i+0x158>
	return __detail::__to_chars_16(__first, __last, __unsigned_val);
  406175:	8b 55 fc             	mov    -0x4(%rbp),%edx
  406178:	48 8b 4d e0          	mov    -0x20(%rbp),%rcx
  40617c:	48 8b 45 e8          	mov    -0x18(%rbp),%rax
  406180:	48 89 ce             	mov    %rcx,%rsi
  406183:	48 89 c7             	mov    %rax,%rdi
  406186:	e8 a6 1e 00 00       	call   408031 <_ZNSt8__detail13__to_chars_16IjEESt15to_chars_resultPcS2_T_>
  40618b:	49 89 c0             	mov    %rax,%r8
  40618e:	49 89 d1             	mov    %rdx,%r9
  406191:	eb 77                	jmp    40620a <_ZSt12__to_chars_iIhESt15to_chars_resultPcS1_T_i+0x175>
	return __detail::__to_chars_10(__first, __last, __unsigned_val);
  406193:	8b 55 fc             	mov    -0x4(%rbp),%edx
  406196:	48 8b 4d e0          	mov    -0x20(%rbp),%rcx
  40619a:	48 8b 45 e8          	mov    -0x18(%rbp),%rax
  40619e:	48 89 ce             	mov    %rcx,%rsi
  4061a1:	48 89 c7             	mov    %rax,%rdi
  4061a4:	e8 c3 1f 00 00       	call   40816c <_ZNSt8__detail13__to_chars_10IjEESt15to_chars_resultPcS2_T_>
  4061a9:	49 89 c0             	mov    %rax,%r8
  4061ac:	49 89 d1             	mov    %rdx,%r9
  4061af:	eb 59                	jmp    40620a <_ZSt12__to_chars_iIhESt15to_chars_resultPcS1_T_i+0x175>
	return __detail::__to_chars_8(__first, __last, __unsigned_val);
  4061b1:	8b 55 fc             	mov    -0x4(%rbp),%edx
  4061b4:	48 8b 4d e0          	mov    -0x20(%rbp),%rcx
  4061b8:	48 8b 45 e8          	mov    -0x18(%rbp),%rax
  4061bc:	48 89 ce             	mov    %rcx,%rsi
  4061bf:	48 89 c7             	mov    %rax,%rdi
  4061c2:	e8 32 20 00 00       	call   4081f9 <_ZNSt8__detail12__to_chars_8IjEESt15to_chars_resultPcS2_T_>
  4061c7:	49 89 c0             	mov    %rax,%r8
  4061ca:	49 89 d1             	mov    %rdx,%r9
  4061cd:	eb 3b                	jmp    40620a <_ZSt12__to_chars_iIhESt15to_chars_resultPcS1_T_i+0x175>
	return __detail::__to_chars_2(__first, __last, __unsigned_val);
  4061cf:	8b 55 fc             	mov    -0x4(%rbp),%edx
  4061d2:	48 8b 4d e0          	mov    -0x20(%rbp),%rcx
  4061d6:	48 8b 45 e8          	mov    -0x18(%rbp),%rax
  4061da:	48 89 ce             	mov    %rcx,%rsi
  4061dd:	48 89 c7             	mov    %rax,%rdi
  4061e0:	e8 41 21 00 00       	call   408326 <_ZNSt8__detail12__to_chars_2IjEESt15to_chars_resultPcS2_T_>
  4061e5:	49 89 c0             	mov    %rax,%r8
  4061e8:	49 89 d1             	mov    %rdx,%r9
  4061eb:	eb 1d                	jmp    40620a <_ZSt12__to_chars_iIhESt15to_chars_resultPcS1_T_i+0x175>
	return __detail::__to_chars(__first, __last, __unsigned_val, __base);
  4061ed:	8b 4d d8             	mov    -0x28(%rbp),%ecx
  4061f0:	8b 55 fc             	mov    -0x4(%rbp),%edx
  4061f3:	48 8b 75 e0          	mov    -0x20(%rbp),%rsi
  4061f7:	48 8b 45 e8          	mov    -0x18(%rbp),%rax
  4061fb:	48 89 c7             	mov    %rax,%rdi
  4061fe:	e8 d2 21 00 00       	call   4083d5 <_ZNSt8__detail10__to_charsIjEESt15to_chars_resultPcS2_T_i>
  406203:	49 89 c0             	mov    %rax,%r8
  406206:	49 89 d1             	mov    %rdx,%r9
  406209:	90                   	nop
    }
  40620a:	4c 89 c0             	mov    %r8,%rax
  40620d:	4c 89 ca             	mov    %r9,%rdx
  406210:	c9                   	leave
  406211:	c3                   	ret

0000000000406212 <_ZSt12__to_chars_iIjESt15to_chars_resultPcS1_T_i>:
    __to_chars_i(char* __first, char* __last, _Tp __value, int __base = 10)
  406212:	55                   	push   %rbp
  406213:	48 89 e5             	mov    %rsp,%rbp
  406216:	48 83 ec 30          	sub    $0x30,%rsp
  40621a:	48 89 7d e8          	mov    %rdi,-0x18(%rbp)
  40621e:	48 89 75 e0          	mov    %rsi,-0x20(%rbp)
  406222:	89 55 dc             	mov    %edx,-0x24(%rbp)
  406225:	89 4d d8             	mov    %ecx,-0x28(%rbp)
  406228:	b8 00 00 00 00       	mov    $0x0,%eax
      __glibcxx_assert(2 <= __base && __base <= 36);
  40622d:	84 c0                	test   %al,%al
  40622f:	74 30                	je     406261 <_ZSt12__to_chars_iIjESt15to_chars_resultPcS1_T_i+0x4f>
  406231:	83 7d d8 01          	cmpl   $0x1,-0x28(%rbp)
  406235:	0f 9e c0             	setle  %al
  406238:	0f b6 c0             	movzbl %al,%eax
  40623b:	48 85 c0             	test   %rax,%rax
  40623e:	75 0f                	jne    40624f <_ZSt12__to_chars_iIjESt15to_chars_resultPcS1_T_i+0x3d>
  406240:	83 7d d8 24          	cmpl   $0x24,-0x28(%rbp)
  406244:	0f 9f c0             	setg   %al
  406247:	0f b6 c0             	movzbl %al,%eax
  40624a:	48 85 c0             	test   %rax,%rax
  40624d:	74 07                	je     406256 <_ZSt12__to_chars_iIjESt15to_chars_resultPcS1_T_i+0x44>
  40624f:	b8 01 00 00 00       	mov    $0x1,%eax
  406254:	eb 05                	jmp    40625b <_ZSt12__to_chars_iIjESt15to_chars_resultPcS1_T_i+0x49>
  406256:	b8 00 00 00 00       	mov    $0x0,%eax
  40625b:	0f b6 c0             	movzbl %al,%eax
  40625e:	48 85 c0             	test   %rax,%rax
      _Up __unsigned_val = __value;
  406261:	8b 45 dc             	mov    -0x24(%rbp),%eax
  406264:	89 45 fc             	mov    %eax,-0x4(%rbp)
      if (__first == __last) [[__unlikely__]]
  406267:	48 8b 45 e8          	mov    -0x18(%rbp),%rax
  40626b:	48 3b 45 e0          	cmp    -0x20(%rbp),%rax
  40626f:	75 20                	jne    406291 <_ZSt12__to_chars_iIjESt15to_chars_resultPcS1_T_i+0x7f>
	return { __last, errc::value_too_large };
  406271:	4c 8b 45 e0          	mov    -0x20(%rbp),%r8
  406275:	4c 89 ca             	mov    %r9,%rdx
  406278:	48 b8 00 00 00 00 ff 	movabs $0xffffffff00000000,%rax
  40627f:	ff ff ff
  406282:	48 21 d0             	and    %rdx,%rax
  406285:	48 83 c8 4b          	or     $0x4b,%rax
  406289:	49 89 c1             	mov    %rax,%r9
  40628c:	e9 f3 00 00 00       	jmp    406384 <_ZSt12__to_chars_iIjESt15to_chars_resultPcS1_T_i+0x172>
      if (__value == 0)
  406291:	83 7d dc 00          	cmpl   $0x0,-0x24(%rbp)
  406295:	75 2a                	jne    4062c1 <_ZSt12__to_chars_iIjESt15to_chars_resultPcS1_T_i+0xaf>
	  *__first = '0';
  406297:	48 8b 45 e8          	mov    -0x18(%rbp),%rax
  40629b:	c6 00 30             	movb   $0x30,(%rax)
	  return { __first + 1, errc{} };
  40629e:	48 8b 45 e8          	mov    -0x18(%rbp),%rax
  4062a2:	48 83 c0 01          	add    $0x1,%rax
  4062a6:	49 89 c0             	mov    %rax,%r8
  4062a9:	4c 89 ca             	mov    %r9,%rdx
  4062ac:	48 b8 00 00 00 00 ff 	movabs $0xffffffff00000000,%rax
  4062b3:	ff ff ff
  4062b6:	48 21 d0             	and    %rdx,%rax
  4062b9:	49 89 c1             	mov    %rax,%r9
  4062bc:	e9 c3 00 00 00       	jmp    406384 <_ZSt12__to_chars_iIjESt15to_chars_resultPcS1_T_i+0x172>
      switch (__base)
  4062c1:	83 7d d8 10          	cmpl   $0x10,-0x28(%rbp)
  4062c5:	74 28                	je     4062ef <_ZSt12__to_chars_iIjESt15to_chars_resultPcS1_T_i+0xdd>
  4062c7:	83 7d d8 10          	cmpl   $0x10,-0x28(%rbp)
  4062cb:	0f 8f 96 00 00 00    	jg     406367 <_ZSt12__to_chars_iIjESt15to_chars_resultPcS1_T_i+0x155>
  4062d1:	83 7d d8 0a          	cmpl   $0xa,-0x28(%rbp)
  4062d5:	74 36                	je     40630d <_ZSt12__to_chars_iIjESt15to_chars_resultPcS1_T_i+0xfb>
  4062d7:	83 7d d8 0a          	cmpl   $0xa,-0x28(%rbp)
  4062db:	0f 8f 86 00 00 00    	jg     406367 <_ZSt12__to_chars_iIjESt15to_chars_resultPcS1_T_i+0x155>
  4062e1:	83 7d d8 02          	cmpl   $0x2,-0x28(%rbp)
  4062e5:	74 62                	je     406349 <_ZSt12__to_chars_iIjESt15to_chars_resultPcS1_T_i+0x137>
  4062e7:	83 7d d8 08          	cmpl   $0x8,-0x28(%rbp)
  4062eb:	74 3e                	je     40632b <_ZSt12__to_chars_iIjESt15to_chars_resultPcS1_T_i+0x119>
  4062ed:	eb 78                	jmp    406367 <_ZSt12__to_chars_iIjESt15to_chars_resultPcS1_T_i+0x155>
	return __detail::__to_chars_16(__first, __last, __unsigned_val);
  4062ef:	8b 55 fc             	mov    -0x4(%rbp),%edx
  4062f2:	48 8b 4d e0          	mov    -0x20(%rbp),%rcx
  4062f6:	48 8b 45 e8          	mov    -0x18(%rbp),%rax
  4062fa:	48 89 ce             	mov    %rcx,%rsi
  4062fd:	48 89 c7             	mov    %rax,%rdi
  406300:	e8 2c 1d 00 00       	call   408031 <_ZNSt8__detail13__to_chars_16IjEESt15to_chars_resultPcS2_T_>
  406305:	49 89 c0             	mov    %rax,%r8
  406308:	49 89 d1             	mov    %rdx,%r9
  40630b:	eb 77                	jmp    406384 <_ZSt12__to_chars_iIjESt15to_chars_resultPcS1_T_i+0x172>
	return __detail::__to_chars_10(__first, __last, __unsigned_val);
  40630d:	8b 55 fc             	mov    -0x4(%rbp),%edx
  406310:	48 8b 4d e0          	mov    -0x20(%rbp),%rcx
  406314:	48 8b 45 e8          	mov    -0x18(%rbp),%rax
  406318:	48 89 ce             	mov    %rcx,%rsi
  40631b:	48 89 c7             	mov    %rax,%rdi
  40631e:	e8 49 1e 00 00       	call   40816c <_ZNSt8__detail13__to_chars_10IjEESt15to_chars_resultPcS2_T_>
  406323:	49 89 c0             	mov    %rax,%r8
  406326:	49 89 d1             	mov    %rdx,%r9
  406329:	eb 59                	jmp    406384 <_ZSt12__to_chars_iIjESt15to_chars_resultPcS1_T_i+0x172>
	return __detail::__to_chars_8(__first, __last, __unsigned_val);
  40632b:	8b 55 fc             	mov    -0x4(%rbp),%edx
  40632e:	48 8b 4d e0          	mov    -0x20(%rbp),%rcx
  406332:	48 8b 45 e8          	mov    -0x18(%rbp),%rax
  406336:	48 89 ce             	mov    %rcx,%rsi
  406339:	48 89 c7             	mov    %rax,%rdi
  40633c:	e8 b8 1e 00 00       	call   4081f9 <_ZNSt8__detail12__to_chars_8IjEESt15to_chars_resultPcS2_T_>
  406341:	49 89 c0             	mov    %rax,%r8
  406344:	49 89 d1             	mov    %rdx,%r9
  406347:	eb 3b                	jmp    406384 <_ZSt12__to_chars_iIjESt15to_chars_resultPcS1_T_i+0x172>
	return __detail::__to_chars_2(__first, __last, __unsigned_val);
  406349:	8b 55 fc             	mov    -0x4(%rbp),%edx
  40634c:	48 8b 4d e0          	mov    -0x20(%rbp),%rcx
  406350:	48 8b 45 e8          	mov    -0x18(%rbp),%rax
  406354:	48 89 ce             	mov    %rcx,%rsi
  406357:	48 89 c7             	mov    %rax,%rdi
  40635a:	e8 c7 1f 00 00       	call   408326 <_ZNSt8__detail12__to_chars_2IjEESt15to_chars_resultPcS2_T_>
  40635f:	49 89 c0             	mov    %rax,%r8
  406362:	49 89 d1             	mov    %rdx,%r9
  406365:	eb 1d                	jmp    406384 <_ZSt12__to_chars_iIjESt15to_chars_resultPcS1_T_i+0x172>
	return __detail::__to_chars(__first, __last, __unsigned_val, __base);
  406367:	8b 4d d8             	mov    -0x28(%rbp),%ecx
  40636a:	8b 55 fc             	mov    -0x4(%rbp),%edx
  40636d:	48 8b 75 e0          	mov    -0x20(%rbp),%rsi
  406371:	48 8b 45 e8          	mov    -0x18(%rbp),%rax
  406375:	48 89 c7             	mov    %rax,%rdi
  406378:	e8 58 20 00 00       	call   4083d5 <_ZNSt8__detail10__to_charsIjEESt15to_chars_resultPcS2_T_i>
  40637d:	49 89 c0             	mov    %rax,%r8
  406380:	49 89 d1             	mov    %rdx,%r9
  406383:	90                   	nop
    }
  406384:	4c 89 c0             	mov    %r8,%rax
  406387:	4c 89 ca             	mov    %r9,%rdx
  40638a:	c9                   	leave
  40638b:	c3                   	ret

000000000040638c <_ZSt12__to_chars_iImESt15to_chars_resultPcS1_T_i>:
    __to_chars_i(char* __first, char* __last, _Tp __value, int __base = 10)
  40638c:	55                   	push   %rbp
  40638d:	48 89 e5             	mov    %rsp,%rbp
  406390:	48 83 ec 30          	sub    $0x30,%rsp
  406394:	48 89 7d e8          	mov    %rdi,-0x18(%rbp)
  406398:	48 89 75 e0          	mov    %rsi,-0x20(%rbp)
  40639c:	48 89 55 d8          	mov    %rdx,-0x28(%rbp)
  4063a0:	89 4d d4             	mov    %ecx,-0x2c(%rbp)
  4063a3:	b8 00 00 00 00       	mov    $0x0,%eax
      __glibcxx_assert(2 <= __base && __base <= 36);
  4063a8:	84 c0                	test   %al,%al
  4063aa:	74 30                	je     4063dc <_ZSt12__to_chars_iImESt15to_chars_resultPcS1_T_i+0x50>
  4063ac:	83 7d d4 01          	cmpl   $0x1,-0x2c(%rbp)
  4063b0:	0f 9e c0             	setle  %al
  4063b3:	0f b6 c0             	movzbl %al,%eax
  4063b6:	48 85 c0             	test   %rax,%rax
  4063b9:	75 0f                	jne    4063ca <_ZSt12__to_chars_iImESt15to_chars_resultPcS1_T_i+0x3e>
  4063bb:	83 7d d4 24          	cmpl   $0x24,-0x2c(%rbp)
  4063bf:	0f 9f c0             	setg   %al
  4063c2:	0f b6 c0             	movzbl %al,%eax
  4063c5:	48 85 c0             	test   %rax,%rax
  4063c8:	74 07                	je     4063d1 <_ZSt12__to_chars_iImESt15to_chars_resultPcS1_T_i+0x45>
  4063ca:	b8 01 00 00 00       	mov    $0x1,%eax
  4063cf:	eb 05                	jmp    4063d6 <_ZSt12__to_chars_iImESt15to_chars_resultPcS1_T_i+0x4a>
  4063d1:	b8 00 00 00 00       	mov    $0x0,%eax
  4063d6:	0f b6 c0             	movzbl %al,%eax
  4063d9:	48 85 c0             	test   %rax,%rax
      _Up __unsigned_val = __value;
  4063dc:	48 8b 45 d8          	mov    -0x28(%rbp),%rax
  4063e0:	48 89 45 f8          	mov    %rax,-0x8(%rbp)
      if (__first == __last) [[__unlikely__]]
  4063e4:	48 8b 45 e8          	mov    -0x18(%rbp),%rax
  4063e8:	48 3b 45 e0          	cmp    -0x20(%rbp),%rax
  4063ec:	75 20                	jne    40640e <_ZSt12__to_chars_iImESt15to_chars_resultPcS1_T_i+0x82>
	return { __last, errc::value_too_large };
  4063ee:	4c 8b 45 e0          	mov    -0x20(%rbp),%r8
  4063f2:	4c 89 ca             	mov    %r9,%rdx
  4063f5:	48 b8 00 00 00 00 ff 	movabs $0xffffffff00000000,%rax
  4063fc:	ff ff ff
  4063ff:	48 21 d0             	and    %rdx,%rax
  406402:	48 83 c8 4b          	or     $0x4b,%rax
  406406:	49 89 c1             	mov    %rax,%r9
  406409:	e9 f9 00 00 00       	jmp    406507 <_ZSt12__to_chars_iImESt15to_chars_resultPcS1_T_i+0x17b>
      if (__value == 0)
  40640e:	48 83 7d d8 00       	cmpq   $0x0,-0x28(%rbp)
  406413:	75 2a                	jne    40643f <_ZSt12__to_chars_iImESt15to_chars_resultPcS1_T_i+0xb3>
	  *__first = '0';
  406415:	48 8b 45 e8          	mov    -0x18(%rbp),%rax
  406419:	c6 00 30             	movb   $0x30,(%rax)
	  return { __first + 1, errc{} };
  40641c:	48 8b 45 e8          	mov    -0x18(%rbp),%rax
  406420:	48 83 c0 01          	add    $0x1,%rax
  406424:	49 89 c0             	mov    %rax,%r8
  406427:	4c 89 ca             	mov    %r9,%rdx
  40642a:	48 b8 00 00 00 00 ff 	movabs $0xffffffff00000000,%rax
  406431:	ff ff ff
  406434:	48 21 d0             	and    %rdx,%rax
  406437:	49 89 c1             	mov    %rax,%r9
  40643a:	e9 c8 00 00 00       	jmp    406507 <_ZSt12__to_chars_iImESt15to_chars_resultPcS1_T_i+0x17b>
      switch (__base)
  40643f:	83 7d d4 10          	cmpl   $0x10,-0x2c(%rbp)
  406443:	74 28                	je     40646d <_ZSt12__to_chars_iImESt15to_chars_resultPcS1_T_i+0xe1>
  406445:	83 7d d4 10          	cmpl   $0x10,-0x2c(%rbp)
  406449:	0f 8f 9a 00 00 00    	jg     4064e9 <_ZSt12__to_chars_iImESt15to_chars_resultPcS1_T_i+0x15d>
  40644f:	83 7d d4 0a          	cmpl   $0xa,-0x2c(%rbp)
  406453:	74 37                	je     40648c <_ZSt12__to_chars_iImESt15to_chars_resultPcS1_T_i+0x100>
  406455:	83 7d d4 0a          	cmpl   $0xa,-0x2c(%rbp)
  406459:	0f 8f 8a 00 00 00    	jg     4064e9 <_ZSt12__to_chars_iImESt15to_chars_resultPcS1_T_i+0x15d>
  40645f:	83 7d d4 02          	cmpl   $0x2,-0x2c(%rbp)
  406463:	74 65                	je     4064ca <_ZSt12__to_chars_iImESt15to_chars_resultPcS1_T_i+0x13e>
  406465:	83 7d d4 08          	cmpl   $0x8,-0x2c(%rbp)
  406469:	74 40                	je     4064ab <_ZSt12__to_chars_iImESt15to_chars_resultPcS1_T_i+0x11f>
  40646b:	eb 7c                	jmp    4064e9 <_ZSt12__to_chars_iImESt15to_chars_resultPcS1_T_i+0x15d>
	return __detail::__to_chars_16(__first, __last, __unsigned_val);
  40646d:	48 8b 55 f8          	mov    -0x8(%rbp),%rdx
  406471:	48 8b 4d e0          	mov    -0x20(%rbp),%rcx
  406475:	48 8b 45 e8          	mov    -0x18(%rbp),%rax
  406479:	48 89 ce             	mov    %rcx,%rsi
  40647c:	48 89 c7             	mov    %rax,%rdi
  40647f:	e8 8c 20 00 00       	call   408510 <_ZNSt8__detail13__to_chars_16ImEESt15to_chars_resultPcS2_T_>
  406484:	49 89 c0             	mov    %rax,%r8
  406487:	49 89 d1             	mov    %rdx,%r9
  40648a:	eb 7b                	jmp    406507 <_ZSt12__to_chars_iImESt15to_chars_resultPcS1_T_i+0x17b>
	return __detail::__to_chars_10(__first, __last, __unsigned_val);
  40648c:	48 8b 55 f8          	mov    -0x8(%rbp),%rdx
  406490:	48 8b 4d e0          	mov    -0x20(%rbp),%rcx
  406494:	48 8b 45 e8          	mov    -0x18(%rbp),%rax
  406498:	48 89 ce             	mov    %rcx,%rsi
  40649b:	48 89 c7             	mov    %rax,%rdi
  40649e:	e8 d4 21 00 00       	call   408677 <_ZNSt8__detail13__to_chars_10ImEESt15to_chars_resultPcS2_T_>
  4064a3:	49 89 c0             	mov    %rax,%r8
  4064a6:	49 89 d1             	mov    %rdx,%r9
  4064a9:	eb 5c                	jmp    406507 <_ZSt12__to_chars_iImESt15to_chars_resultPcS1_T_i+0x17b>
	return __detail::__to_chars_8(__first, __last, __unsigned_val);
  4064ab:	48 8b 55 f8          	mov    -0x8(%rbp),%rdx
  4064af:	48 8b 4d e0          	mov    -0x20(%rbp),%rcx
  4064b3:	48 8b 45 e8          	mov    -0x18(%rbp),%rax
  4064b7:	48 89 ce             	mov    %rcx,%rsi
  4064ba:	48 89 c7             	mov    %rax,%rdi
  4064bd:	e8 46 22 00 00       	call   408708 <_ZNSt8__detail12__to_chars_8ImEESt15to_chars_resultPcS2_T_>
  4064c2:	49 89 c0             	mov    %rax,%r8
  4064c5:	49 89 d1             	mov    %rdx,%r9
  4064c8:	eb 3d                	jmp    406507 <_ZSt12__to_chars_iImESt15to_chars_resultPcS1_T_i+0x17b>
	return __detail::__to_chars_2(__first, __last, __unsigned_val);
  4064ca:	48 8b 55 f8          	mov    -0x8(%rbp),%rdx
  4064ce:	48 8b 4d e0          	mov    -0x20(%rbp),%rcx
  4064d2:	48 8b 45 e8          	mov    -0x18(%rbp),%rax
  4064d6:	48 89 ce             	mov    %rcx,%rsi
  4064d9:	48 89 c7             	mov    %rax,%rdi
  4064dc:	e8 67 23 00 00       	call   408848 <_ZNSt8__detail12__to_chars_2ImEESt15to_chars_resultPcS2_T_>
  4064e1:	49 89 c0             	mov    %rax,%r8
  4064e4:	49 89 d1             	mov    %rdx,%r9
  4064e7:	eb 1e                	jmp    406507 <_ZSt12__to_chars_iImESt15to_chars_resultPcS1_T_i+0x17b>
	return __detail::__to_chars(__first, __last, __unsigned_val, __base);
  4064e9:	8b 4d d4             	mov    -0x2c(%rbp),%ecx
  4064ec:	48 8b 55 f8          	mov    -0x8(%rbp),%rdx
  4064f0:	48 8b 75 e0          	mov    -0x20(%rbp),%rsi
  4064f4:	48 8b 45 e8          	mov    -0x18(%rbp),%rax
  4064f8:	48 89 c7             	mov    %rax,%rdi
  4064fb:	e8 fc 23 00 00       	call   4088fc <_ZNSt8__detail10__to_charsImEESt15to_chars_resultPcS2_T_i>
  406500:	49 89 c0             	mov    %rax,%r8
  406503:	49 89 d1             	mov    %rdx,%r9
  406506:	90                   	nop
    }
  406507:	4c 89 c0             	mov    %r8,%rax
  40650a:	4c 89 ca             	mov    %r9,%rdx
  40650d:	c9                   	leave
  40650e:	c3                   	ret

000000000040650f <_ZSt12__to_chars_iIyESt15to_chars_resultPcS1_T_i>:
    __to_chars_i(char* __first, char* __last, _Tp __value, int __base = 10)
  40650f:	55                   	push   %rbp
  406510:	48 89 e5             	mov    %rsp,%rbp
  406513:	48 83 ec 30          	sub    $0x30,%rsp
  406517:	48 89 7d e8          	mov    %rdi,-0x18(%rbp)
  40651b:	48 89 75 e0          	mov    %rsi,-0x20(%rbp)
  40651f:	48 89 55 d8          	mov    %rdx,-0x28(%rbp)
  406523:	89 4d d4             	mov    %ecx,-0x2c(%rbp)
  406526:	b8 00 00 00 00       	mov    $0x0,%eax
      __glibcxx_assert(2 <= __base && __base <= 36);
  40652b:	84 c0                	test   %al,%al
  40652d:	74 30                	je     40655f <_ZSt12__to_chars_iIyESt15to_chars_resultPcS1_T_i+0x50>
  40652f:	83 7d d4 01          	cmpl   $0x1,-0x2c(%rbp)
  406533:	0f 9e c0             	setle  %al
  406536:	0f b6 c0             	movzbl %al,%eax
  406539:	48 85 c0             	test   %rax,%rax
  40653c:	75 0f                	jne    40654d <_ZSt12__to_chars_iIyESt15to_chars_resultPcS1_T_i+0x3e>
  40653e:	83 7d d4 24          	cmpl   $0x24,-0x2c(%rbp)
  406542:	0f 9f c0             	setg   %al
  406545:	0f b6 c0             	movzbl %al,%eax
  406548:	48 85 c0             	test   %rax,%rax
  40654b:	74 07                	je     406554 <_ZSt12__to_chars_iIyESt15to_chars_resultPcS1_T_i+0x45>
  40654d:	b8 01 00 00 00       	mov    $0x1,%eax
  406552:	eb 05                	jmp    406559 <_ZSt12__to_chars_iIyESt15to_chars_resultPcS1_T_i+0x4a>
  406554:	b8 00 00 00 00       	mov    $0x0,%eax
  406559:	0f b6 c0             	movzbl %al,%eax
  40655c:	48 85 c0             	test   %rax,%rax
      _Up __unsigned_val = __value;
  40655f:	48 8b 45 d8          	mov    -0x28(%rbp),%rax
  406563:	48 89 45 f8          	mov    %rax,-0x8(%rbp)
      if (__first == __last) [[__unlikely__]]
  406567:	48 8b 45 e8          	mov    -0x18(%rbp),%rax
  40656b:	48 3b 45 e0          	cmp    -0x20(%rbp),%rax
  40656f:	75 20                	jne    406591 <_ZSt12__to_chars_iIyESt15to_chars_resultPcS1_T_i+0x82>
	return { __last, errc::value_too_large };
  406571:	4c 8b 45 e0          	mov    -0x20(%rbp),%r8
  406575:	4c 89 ca             	mov    %r9,%rdx
  406578:	48 b8 00 00 00 00 ff 	movabs $0xffffffff00000000,%rax
  40657f:	ff ff ff
  406582:	48 21 d0             	and    %rdx,%rax
  406585:	48 83 c8 4b          	or     $0x4b,%rax
  406589:	49 89 c1             	mov    %rax,%r9
  40658c:	e9 f9 00 00 00       	jmp    40668a <_ZSt12__to_chars_iIyESt15to_chars_resultPcS1_T_i+0x17b>
      if (__value == 0)
  406591:	48 83 7d d8 00       	cmpq   $0x0,-0x28(%rbp)
  406596:	75 2a                	jne    4065c2 <_ZSt12__to_chars_iIyESt15to_chars_resultPcS1_T_i+0xb3>
	  *__first = '0';
  406598:	48 8b 45 e8          	mov    -0x18(%rbp),%rax
  40659c:	c6 00 30             	movb   $0x30,(%rax)
	  return { __first + 1, errc{} };
  40659f:	48 8b 45 e8          	mov    -0x18(%rbp),%rax
  4065a3:	48 83 c0 01          	add    $0x1,%rax
  4065a7:	49 89 c0             	mov    %rax,%r8
  4065aa:	4c 89 ca             	mov    %r9,%rdx
  4065ad:	48 b8 00 00 00 00 ff 	movabs $0xffffffff00000000,%rax
  4065b4:	ff ff ff
  4065b7:	48 21 d0             	and    %rdx,%rax
  4065ba:	49 89 c1             	mov    %rax,%r9
  4065bd:	e9 c8 00 00 00       	jmp    40668a <_ZSt12__to_chars_iIyESt15to_chars_resultPcS1_T_i+0x17b>
      switch (__base)
  4065c2:	83 7d d4 10          	cmpl   $0x10,-0x2c(%rbp)
  4065c6:	74 28                	je     4065f0 <_ZSt12__to_chars_iIyESt15to_chars_resultPcS1_T_i+0xe1>
  4065c8:	83 7d d4 10          	cmpl   $0x10,-0x2c(%rbp)
  4065cc:	0f 8f 9a 00 00 00    	jg     40666c <_ZSt12__to_chars_iIyESt15to_chars_resultPcS1_T_i+0x15d>
  4065d2:	83 7d d4 0a          	cmpl   $0xa,-0x2c(%rbp)
  4065d6:	74 37                	je     40660f <_ZSt12__to_chars_iIyESt15to_chars_resultPcS1_T_i+0x100>
  4065d8:	83 7d d4 0a          	cmpl   $0xa,-0x2c(%rbp)
  4065dc:	0f 8f 8a 00 00 00    	jg     40666c <_ZSt12__to_chars_iIyESt15to_chars_resultPcS1_T_i+0x15d>
  4065e2:	83 7d d4 02          	cmpl   $0x2,-0x2c(%rbp)
  4065e6:	74 65                	je     40664d <_ZSt12__to_chars_iIyESt15to_chars_resultPcS1_T_i+0x13e>
  4065e8:	83 7d d4 08          	cmpl   $0x8,-0x2c(%rbp)
  4065ec:	74 40                	je     40662e <_ZSt12__to_chars_iIyESt15to_chars_resultPcS1_T_i+0x11f>
  4065ee:	eb 7c                	jmp    40666c <_ZSt12__to_chars_iIyESt15to_chars_resultPcS1_T_i+0x15d>
	return __detail::__to_chars_16(__first, __last, __unsigned_val);
  4065f0:	48 8b 55 f8          	mov    -0x8(%rbp),%rdx
  4065f4:	48 8b 4d e0          	mov    -0x20(%rbp),%rcx
  4065f8:	48 8b 45 e8          	mov    -0x18(%rbp),%rax
  4065fc:	48 89 ce             	mov    %rcx,%rsi
  4065ff:	48 89 c7             	mov    %rax,%rdi
  406602:	e8 09 1f 00 00       	call   408510 <_ZNSt8__detail13__to_chars_16ImEESt15to_chars_resultPcS2_T_>
  406607:	49 89 c0             	mov    %rax,%r8
  40660a:	49 89 d1             	mov    %rdx,%r9
  40660d:	eb 7b                	jmp    40668a <_ZSt12__to_chars_iIyESt15to_chars_resultPcS1_T_i+0x17b>
	return __detail::__to_chars_10(__first, __last, __unsigned_val);
  40660f:	48 8b 55 f8          	mov    -0x8(%rbp),%rdx
  406613:	48 8b 4d e0          	mov    -0x20(%rbp),%rcx
  406617:	48 8b 45 e8          	mov    -0x18(%rbp),%rax
  40661b:	48 89 ce             	mov    %rcx,%rsi
  40661e:	48 89 c7             	mov    %rax,%rdi
  406621:	e8 51 20 00 00       	call   408677 <_ZNSt8__detail13__to_chars_10ImEESt15to_chars_resultPcS2_T_>
  406626:	49 89 c0             	mov    %rax,%r8
  406629:	49 89 d1             	mov    %rdx,%r9
  40662c:	eb 5c                	jmp    40668a <_ZSt12__to_chars_iIyESt15to_chars_resultPcS1_T_i+0x17b>
	return __detail::__to_chars_8(__first, __last, __unsigned_val);
  40662e:	48 8b 55 f8          	mov    -0x8(%rbp),%rdx
  406632:	48 8b 4d e0          	mov    -0x20(%rbp),%rcx
  406636:	48 8b 45 e8          	mov    -0x18(%rbp),%rax
  40663a:	48 89 ce             	mov    %rcx,%rsi
  40663d:	48 89 c7             	mov    %rax,%rdi
  406640:	e8 c3 20 00 00       	call   408708 <_ZNSt8__detail12__to_chars_8ImEESt15to_chars_resultPcS2_T_>
  406645:	49 89 c0             	mov    %rax,%r8
  406648:	49 89 d1             	mov    %rdx,%r9
  40664b:	eb 3d                	jmp    40668a <_ZSt12__to_chars_iIyESt15to_chars_resultPcS1_T_i+0x17b>
	return __detail::__to_chars_2(__first, __last, __unsigned_val);
  40664d:	48 8b 55 f8          	mov    -0x8(%rbp),%rdx
  406651:	48 8b 4d e0          	mov    -0x20(%rbp),%rcx
  406655:	48 8b 45 e8          	mov    -0x18(%rbp),%rax
  406659:	48 89 ce             	mov    %rcx,%rsi
  40665c:	48 89 c7             	mov    %rax,%rdi
  40665f:	e8 e4 21 00 00       	call   408848 <_ZNSt8__detail12__to_chars_2ImEESt15to_chars_resultPcS2_T_>
  406664:	49 89 c0             	mov    %rax,%r8
  406667:	49 89 d1             	mov    %rdx,%r9
  40666a:	eb 1e                	jmp    40668a <_ZSt12__to_chars_iIyESt15to_chars_resultPcS1_T_i+0x17b>
	return __detail::__to_chars(__first, __last, __unsigned_val, __base);
  40666c:	8b 4d d4             	mov    -0x2c(%rbp),%ecx
  40666f:	48 8b 55 f8          	mov    -0x8(%rbp),%rdx
  406673:	48 8b 75 e0          	mov    -0x20(%rbp),%rsi
  406677:	48 8b 45 e8          	mov    -0x18(%rbp),%rax
  40667b:	48 89 c7             	mov    %rax,%rdi
  40667e:	e8 79 22 00 00       	call   4088fc <_ZNSt8__detail10__to_charsImEESt15to_chars_resultPcS2_T_i>
  406683:	49 89 c0             	mov    %rax,%r8
  406686:	49 89 d1             	mov    %rdx,%r9
  406689:	90                   	nop
    }
  40668a:	4c 89 c0             	mov    %r8,%rax
  40668d:	4c 89 ca             	mov    %r9,%rdx
  406690:	c9                   	leave
  406691:	c3                   	ret

0000000000406692 <_ZSt13__countl_zeroIjEiT_>:
    __countl_zero(_Tp __x) noexcept
  406692:	55                   	push   %rbp
  406693:	48 89 e5             	mov    %rsp,%rbp
  406696:	89 7d dc             	mov    %edi,-0x24(%rbp)
      constexpr auto _Nd = __int_traits<_Tp>::__digits;
  406699:	c7 45 fc 20 00 00 00 	movl   $0x20,-0x4(%rbp)
      if (__x == 0)
  4066a0:	83 7d dc 00          	cmpl   $0x0,-0x24(%rbp)
  4066a4:	75 07                	jne    4066ad <_ZSt13__countl_zeroIjEiT_+0x1b>
        return _Nd;
  4066a6:	b8 20 00 00 00       	mov    $0x20,%eax
  4066ab:	eb 24                	jmp    4066d1 <_ZSt13__countl_zeroIjEiT_+0x3f>
      constexpr auto _Nd_ull = __int_traits<unsigned long long>::__digits;
  4066ad:	c7 45 f8 40 00 00 00 	movl   $0x40,-0x8(%rbp)
      constexpr auto _Nd_ul = __int_traits<unsigned long>::__digits;
  4066b4:	c7 45 f4 40 00 00 00 	movl   $0x40,-0xc(%rbp)
      constexpr auto _Nd_u = __int_traits<unsigned>::__digits;
  4066bb:	c7 45 f0 20 00 00 00 	movl   $0x20,-0x10(%rbp)
	  constexpr int __diff = _Nd_u - _Nd;
  4066c2:	c7 45 ec 00 00 00 00 	movl   $0x0,-0x14(%rbp)
	  return __builtin_clz(__x) - __diff;
  4066c9:	0f bd 45 dc          	bsr    -0x24(%rbp),%eax
  4066cd:	83 f0 1f             	xor    $0x1f,%eax
  4066d0:	90                   	nop
    }
  4066d1:	5d                   	pop    %rbp
  4066d2:	c3                   	ret

00000000004066d3 <_ZSt12construct_atIcJRKcEEDTgsnwcvPvLi0E_T_pispcl7declvalIT0_EEEEPS3_DpOS4_>:
    }

#if __cpp_constexpr_dynamic_alloc // >= C++20
  template<typename _Tp, typename... _Args>
    constexpr auto
    construct_at(_Tp* __location, _Args&&... __args)
  4066d3:	55                   	push   %rbp
  4066d4:	48 89 e5             	mov    %rsp,%rbp
  4066d7:	53                   	push   %rbx
  4066d8:	48 83 ec 18          	sub    $0x18,%rsp
  4066dc:	48 89 7d e8          	mov    %rdi,-0x18(%rbp)
  4066e0:	48 89 75 e0          	mov    %rsi,-0x20(%rbp)
    noexcept(noexcept(::new((void*)0) _Tp(std::declval<_Args>()...)))
    -> decltype(::new((void*)0) _Tp(std::declval<_Args>()...))
    { return ::new((void*)__location) _Tp(std::forward<_Args>(__args)...); }
  4066e4:	48 8b 45 e8          	mov    -0x18(%rbp),%rax
  4066e8:	48 89 c6             	mov    %rax,%rsi
  4066eb:	bf 01 00 00 00       	mov    $0x1,%edi
  4066f0:	e8 75 de ff ff       	call   40456a <_ZnwmPv>
  4066f5:	48 89 c3             	mov    %rax,%rbx
  4066f8:	48 8b 45 e0          	mov    -0x20(%rbp),%rax
  4066fc:	48 89 c7             	mov    %rax,%rdi
  4066ff:	e8 39 23 00 00       	call   408a3d <_ZSt7forwardIRKcEOT_RNSt16remove_referenceIS2_E4typeE>
  406704:	0f b6 00             	movzbl (%rax),%eax
  406707:	88 03                	mov    %al,(%rbx)
  406709:	48 89 d8             	mov    %rbx,%rax
  40670c:	48 8b 5d f8          	mov    -0x8(%rbp),%rbx
  406710:	c9                   	leave
  406711:	c3                   	ret

0000000000406712 <_ZN9__gnu_cxx11char_traitsIcE4findEPKcmRS2_>:
    char_traits<_CharT>::
  406712:	55                   	push   %rbp
  406713:	48 89 e5             	mov    %rsp,%rbp
  406716:	48 83 ec 30          	sub    $0x30,%rsp
  40671a:	48 89 7d e8          	mov    %rdi,-0x18(%rbp)
  40671e:	48 89 75 e0          	mov    %rsi,-0x20(%rbp)
  406722:	48 89 55 d8          	mov    %rdx,-0x28(%rbp)
      for (std::size_t __i = 0; __i < __n; ++__i)
  406726:	48 c7 45 f8 00 00 00 	movq   $0x0,-0x8(%rbp)
  40672d:	00
  40672e:	eb 30                	jmp    406760 <_ZN9__gnu_cxx11char_traitsIcE4findEPKcmRS2_+0x4e>
        if (eq(__s[__i], __a))
  406730:	48 8b 55 e8          	mov    -0x18(%rbp),%rdx
  406734:	48 8b 45 f8          	mov    -0x8(%rbp),%rax
  406738:	48 01 c2             	add    %rax,%rdx
  40673b:	48 8b 45 d8          	mov    -0x28(%rbp),%rax
  40673f:	48 89 c6             	mov    %rax,%rsi
  406742:	48 89 d7             	mov    %rdx,%rdi
  406745:	e8 92 f0 ff ff       	call   4057dc <_ZN9__gnu_cxx11char_traitsIcE2eqERKcS3_>
  40674a:	84 c0                	test   %al,%al
  40674c:	74 0d                	je     40675b <_ZN9__gnu_cxx11char_traitsIcE4findEPKcmRS2_+0x49>
          return __s + __i;
  40674e:	48 8b 55 e8          	mov    -0x18(%rbp),%rdx
  406752:	48 8b 45 f8          	mov    -0x8(%rbp),%rax
  406756:	48 01 d0             	add    %rdx,%rax
  406759:	eb 14                	jmp    40676f <_ZN9__gnu_cxx11char_traitsIcE4findEPKcmRS2_+0x5d>
      for (std::size_t __i = 0; __i < __n; ++__i)
  40675b:	48 83 45 f8 01       	addq   $0x1,-0x8(%rbp)
  406760:	48 8b 45 f8          	mov    -0x8(%rbp),%rax
  406764:	48 3b 45 e0          	cmp    -0x20(%rbp),%rax
  406768:	72 c6                	jb     406730 <_ZN9__gnu_cxx11char_traitsIcE4findEPKcmRS2_+0x1e>
      return 0;
  40676a:	b8 00 00 00 00       	mov    $0x0,%eax
    }
  40676f:	c9                   	leave
  406770:	c3                   	ret
  406771:	90                   	nop

0000000000406772 <_ZN9__gnu_cxx11char_traitsIcE4moveEPcPKcm>:
    char_traits<_CharT>::
  406772:	55                   	push   %rbp
  406773:	48 89 e5             	mov    %rsp,%rbp
  406776:	48 83 ec 20          	sub    $0x20,%rsp
  40677a:	48 89 7d f8          	mov    %rdi,-0x8(%rbp)
  40677e:	48 89 75 f0          	mov    %rsi,-0x10(%rbp)
  406782:	48 89 55 e8          	mov    %rdx,-0x18(%rbp)
      if (__n == 0)
  406786:	48 83 7d e8 00       	cmpq   $0x0,-0x18(%rbp)
  40678b:	75 06                	jne    406793 <_ZN9__gnu_cxx11char_traitsIcE4moveEPcPKcm+0x21>
	return __s1;
  40678d:	48 8b 45 f8          	mov    -0x8(%rbp),%rax
  406791:	eb 41                	jmp    4067d4 <_ZN9__gnu_cxx11char_traitsIcE4moveEPcPKcm+0x62>
  406793:	b8 00 00 00 00       	mov    $0x0,%eax
      if (std::__is_constant_evaluated())
  406798:	84 c0                	test   %al,%al
  40679a:	74 1d                	je     4067b9 <_ZN9__gnu_cxx11char_traitsIcE4moveEPcPKcm+0x47>
	    copy(__s1, __s2, __n);
  40679c:	48 8b 55 e8          	mov    -0x18(%rbp),%rdx
  4067a0:	48 8b 4d f0          	mov    -0x10(%rbp),%rcx
  4067a4:	48 8b 45 f8          	mov    -0x8(%rbp),%rax
  4067a8:	48 89 ce             	mov    %rcx,%rsi
  4067ab:	48 89 c7             	mov    %rax,%rdi
  4067ae:	e8 23 00 00 00       	call   4067d6 <_ZN9__gnu_cxx11char_traitsIcE4copyEPcPKcm>
	  return __s1;
  4067b3:	48 8b 45 f8          	mov    -0x8(%rbp),%rax
  4067b7:	eb 1b                	jmp    4067d4 <_ZN9__gnu_cxx11char_traitsIcE4moveEPcPKcm+0x62>
      __builtin_memmove(__s1, __s2, __n * sizeof(char_type));
  4067b9:	48 8b 55 e8          	mov    -0x18(%rbp),%rdx
  4067bd:	48 8b 4d f0          	mov    -0x10(%rbp),%rcx
  4067c1:	48 8b 45 f8          	mov    -0x8(%rbp),%rax
  4067c5:	48 89 ce             	mov    %rcx,%rsi
  4067c8:	48 89 c7             	mov    %rax,%rdi
  4067cb:	e8 60 db ff ff       	call   404330 <memmove@plt>
      return __s1;
  4067d0:	48 8b 45 f8          	mov    -0x8(%rbp),%rax
    }
  4067d4:	c9                   	leave
  4067d5:	c3                   	ret

00000000004067d6 <_ZN9__gnu_cxx11char_traitsIcE4copyEPcPKcm>:
    char_traits<_CharT>::
  4067d6:	55                   	push   %rbp
  4067d7:	48 89 e5             	mov    %rsp,%rbp
  4067da:	48 83 ec 30          	sub    $0x30,%rsp
  4067de:	48 89 7d e8          	mov    %rdi,-0x18(%rbp)
  4067e2:	48 89 75 e0          	mov    %rsi,-0x20(%rbp)
  4067e6:	48 89 55 d8          	mov    %rdx,-0x28(%rbp)
      if (__n == 0)
  4067ea:	48 83 7d d8 00       	cmpq   $0x0,-0x28(%rbp)
  4067ef:	75 06                	jne    4067f7 <_ZN9__gnu_cxx11char_traitsIcE4copyEPcPKcm+0x21>
	return __s1;
  4067f1:	48 8b 45 e8          	mov    -0x18(%rbp),%rax
  4067f5:	eb 6a                	jmp    406861 <_ZN9__gnu_cxx11char_traitsIcE4copyEPcPKcm+0x8b>
  4067f7:	b8 00 00 00 00       	mov    $0x0,%eax
      if (std::__is_constant_evaluated())
  4067fc:	84 c0                	test   %al,%al
  4067fe:	74 40                	je     406840 <_ZN9__gnu_cxx11char_traitsIcE4copyEPcPKcm+0x6a>
	  for (std::size_t __i = 0; __i < __n; ++__i)
  406800:	48 c7 45 f8 00 00 00 	movq   $0x0,-0x8(%rbp)
  406807:	00
  406808:	eb 26                	jmp    406830 <_ZN9__gnu_cxx11char_traitsIcE4copyEPcPKcm+0x5a>
	    std::construct_at(__s1 + __i, __s2[__i]);
  40680a:	48 8b 55 e0          	mov    -0x20(%rbp),%rdx
  40680e:	48 8b 45 f8          	mov    -0x8(%rbp),%rax
  406812:	48 01 c2             	add    %rax,%rdx
  406815:	48 8b 4d e8          	mov    -0x18(%rbp),%rcx
  406819:	48 8b 45 f8          	mov    -0x8(%rbp),%rax
  40681d:	48 01 c8             	add    %rcx,%rax
  406820:	48 89 d6             	mov    %rdx,%rsi
  406823:	48 89 c7             	mov    %rax,%rdi
  406826:	e8 a8 fe ff ff       	call   4066d3 <_ZSt12construct_atIcJRKcEEDTgsnwcvPvLi0E_T_pispcl7declvalIT0_EEEEPS3_DpOS4_>
	  for (std::size_t __i = 0; __i < __n; ++__i)
  40682b:	48 83 45 f8 01       	addq   $0x1,-0x8(%rbp)
  406830:	48 8b 45 f8          	mov    -0x8(%rbp),%rax
  406834:	48 3b 45 d8          	cmp    -0x28(%rbp),%rax
  406838:	72 d0                	jb     40680a <_ZN9__gnu_cxx11char_traitsIcE4copyEPcPKcm+0x34>
	  return __s1;
  40683a:	48 8b 45 e8          	mov    -0x18(%rbp),%rax
  40683e:	eb 21                	jmp    406861 <_ZN9__gnu_cxx11char_traitsIcE4copyEPcPKcm+0x8b>
      __builtin_memcpy(__s1, __s2, __n * sizeof(char_type));
  406840:	48 8b 55 e8          	mov    -0x18(%rbp),%rdx
  406844:	48 8b 45 e0          	mov    -0x20(%rbp),%rax
  406848:	48 89 d1             	mov    %rdx,%rcx
  40684b:	48 89 c6             	mov    %rax,%rsi
  40684e:	48 8b 45 d8          	mov    -0x28(%rbp),%rax
  406852:	48 89 c2             	mov    %rax,%rdx
  406855:	48 89 cf             	mov    %rcx,%rdi
  406858:	e8 73 d9 ff ff       	call   4041d0 <memcpy@plt>
      return __s1;
  40685d:	48 8b 45 e8          	mov    -0x18(%rbp),%rax
    }
  406861:	c9                   	leave
  406862:	c3                   	ret
  406863:	90                   	nop

0000000000406864 <_ZN9__gnu_cxx11char_traitsIcE6assignEPcmc>:
    char_traits<_CharT>::
  406864:	55                   	push   %rbp
  406865:	48 89 e5             	mov    %rsp,%rbp
  406868:	48 83 ec 30          	sub    $0x30,%rsp
  40686c:	48 89 7d e8          	mov    %rdi,-0x18(%rbp)
  406870:	48 89 75 e0          	mov    %rsi,-0x20(%rbp)
  406874:	89 d0                	mov    %edx,%eax
  406876:	88 45 dc             	mov    %al,-0x24(%rbp)
  406879:	b8 00 00 00 00       	mov    $0x0,%eax
      if (std::__is_constant_evaluated())
  40687e:	84 c0                	test   %al,%al
  406880:	74 39                	je     4068bb <_ZN9__gnu_cxx11char_traitsIcE6assignEPcmc+0x57>
	  for (std::size_t __i = 0; __i < __n; ++__i)
  406882:	48 c7 45 f8 00 00 00 	movq   $0x0,-0x8(%rbp)
  406889:	00
  40688a:	eb 1f                	jmp    4068ab <_ZN9__gnu_cxx11char_traitsIcE6assignEPcmc+0x47>
	    std::construct_at(__s + __i, __a);
  40688c:	48 8b 55 e8          	mov    -0x18(%rbp),%rdx
  406890:	48 8b 45 f8          	mov    -0x8(%rbp),%rax
  406894:	48 01 c2             	add    %rax,%rdx
  406897:	48 8d 45 dc          	lea    -0x24(%rbp),%rax
  40689b:	48 89 c6             	mov    %rax,%rsi
  40689e:	48 89 d7             	mov    %rdx,%rdi
  4068a1:	e8 a5 21 00 00       	call   408a4b <_ZSt12construct_atIcJRcEEDTgsnwcvPvLi0E_T_pispcl7declvalIT0_EEEEPS2_DpOS3_>
	  for (std::size_t __i = 0; __i < __n; ++__i)
  4068a6:	48 83 45 f8 01       	addq   $0x1,-0x8(%rbp)
  4068ab:	48 8b 45 f8          	mov    -0x8(%rbp),%rax
  4068af:	48 3b 45 e0          	cmp    -0x20(%rbp),%rax
  4068b3:	72 d7                	jb     40688c <_ZN9__gnu_cxx11char_traitsIcE6assignEPcmc+0x28>
	  return __s;
  4068b5:	48 8b 45 e8          	mov    -0x18(%rbp),%rax
  4068b9:	eb 2b                	jmp    4068e6 <_ZN9__gnu_cxx11char_traitsIcE6assignEPcmc+0x82>
	  if (__n)
  4068bb:	48 83 7d e0 00       	cmpq   $0x0,-0x20(%rbp)
  4068c0:	74 20                	je     4068e2 <_ZN9__gnu_cxx11char_traitsIcE6assignEPcmc+0x7e>
	      __builtin_memcpy(&__c, __builtin_addressof(__a), 1);
  4068c2:	0f b6 45 dc          	movzbl -0x24(%rbp),%eax
  4068c6:	88 45 f7             	mov    %al,-0x9(%rbp)
	      __builtin_memset(__s, __c, __n);
  4068c9:	0f b6 45 f7          	movzbl -0x9(%rbp),%eax
  4068cd:	0f b6 c8             	movzbl %al,%ecx
  4068d0:	48 8b 55 e0          	mov    -0x20(%rbp),%rdx
  4068d4:	48 8b 45 e8          	mov    -0x18(%rbp),%rax
  4068d8:	89 ce                	mov    %ecx,%esi
  4068da:	48 89 c7             	mov    %rax,%rdi
  4068dd:	e8 1e d8 ff ff       	call   404100 <memset@plt>
      return __s;
  4068e2:	48 8b 45 e8          	mov    -0x18(%rbp),%rax
    }
  4068e6:	c9                   	leave
  4068e7:	c3                   	ret

00000000004068e8 <_ZNKSt17basic_string_viewIcSt11char_traitsIcEE4dataEv>:
	return *(this->_M_str + this->_M_len - 1);
      }

      [[nodiscard]]
      constexpr const_pointer
      data() const noexcept
  4068e8:	55                   	push   %rbp
  4068e9:	48 89 e5             	mov    %rsp,%rbp
  4068ec:	48 89 7d f8          	mov    %rdi,-0x8(%rbp)
      { return this->_M_str; }
  4068f0:	48 8b 45 f8          	mov    -0x8(%rbp),%rax
  4068f4:	48 8b 40 08          	mov    0x8(%rax),%rax
  4068f8:	5d                   	pop    %rbp
  4068f9:	c3                   	ret

00000000004068fa <_ZNSt17basic_string_viewIcSt11char_traitsIcEEC1EPKcm>:
      basic_string_view(const _CharT* __str, size_type __len) noexcept
  4068fa:	55                   	push   %rbp
  4068fb:	48 89 e5             	mov    %rsp,%rbp
  4068fe:	48 89 7d f8          	mov    %rdi,-0x8(%rbp)
  406902:	48 89 75 f0          	mov    %rsi,-0x10(%rbp)
  406906:	48 89 55 e8          	mov    %rdx,-0x18(%rbp)
      : _M_len{__len}, _M_str{__str}
  40690a:	48 8b 45 f8          	mov    -0x8(%rbp),%rax
  40690e:	48 8b 55 e8          	mov    -0x18(%rbp),%rdx
  406912:	48 89 10             	mov    %rdx,(%rax)
  406915:	48 8b 45 f8          	mov    -0x8(%rbp),%rax
  406919:	48 8b 55 f0          	mov    -0x10(%rbp),%rdx
  40691d:	48 89 50 08          	mov    %rdx,0x8(%rax)
      { }
  406921:	90                   	nop
  406922:	5d                   	pop    %rbp
  406923:	c3                   	ret

0000000000406924 <_ZNKSt7__cxx1112basic_stringIcSt11char_traitsIcESaIcEE7_M_dataEv>:
      _M_data() const
  406924:	55                   	push   %rbp
  406925:	48 89 e5             	mov    %rsp,%rbp
  406928:	48 89 7d f8          	mov    %rdi,-0x8(%rbp)
      { return _M_dataplus._M_p; }
  40692c:	48 8b 45 f8          	mov    -0x8(%rbp),%rax
  406930:	48 8b 00             	mov    (%rax),%rax
  406933:	5d                   	pop    %rbp
  406934:	c3                   	ret
  406935:	90                   	nop

0000000000406936 <_ZNSt7__cxx1112basic_stringIcSt11char_traitsIcESaIcEE13_M_set_lengthEm>:
      _M_set_length(size_type __n)
  406936:	55                   	push   %rbp
  406937:	48 89 e5             	mov    %rsp,%rbp
  40693a:	48 83 ec 20          	sub    $0x20,%rsp
  40693e:	48 89 7d e8          	mov    %rdi,-0x18(%rbp)
  406942:	48 89 75 e0          	mov    %rsi,-0x20(%rbp)
	_M_length(__n);
  406946:	48 8b 55 e0          	mov    -0x20(%rbp),%rdx
  40694a:	48 8b 45 e8          	mov    -0x18(%rbp),%rax
  40694e:	48 89 d6             	mov    %rdx,%rsi
  406951:	48 89 c7             	mov    %rax,%rdi
  406954:	e8 31 21 00 00       	call   408a8a <_ZNSt7__cxx1112basic_stringIcSt11char_traitsIcESaIcEE9_M_lengthEm>
	traits_type::assign(_M_data()[__n], _CharT());
  406959:	c6 45 ff 00          	movb   $0x0,-0x1(%rbp)
  40695d:	48 8b 45 e8          	mov    -0x18(%rbp),%rax
  406961:	48 89 c7             	mov    %rax,%rdi
  406964:	e8 bb ff ff ff       	call   406924 <_ZNKSt7__cxx1112basic_stringIcSt11char_traitsIcESaIcEE7_M_dataEv>
  406969:	48 8b 55 e0          	mov    -0x20(%rbp),%rdx
  40696d:	48 01 c2             	add    %rax,%rdx
  406970:	48 8d 45 ff          	lea    -0x1(%rbp),%rax
  406974:	48 89 c6             	mov    %rax,%rsi
  406977:	48 89 d7             	mov    %rdx,%rdi
  40697a:	e8 62 dc ff ff       	call   4045e1 <_ZNSt11char_traitsIcE6assignERcRKc>
      }
  40697f:	90                   	nop
  406980:	c9                   	leave
  406981:	c3                   	ret

0000000000406982 <_ZNSt7__cxx1112basic_stringIcSt11char_traitsIcESaIcEED1Ev>:
      ~basic_string()
  406982:	55                   	push   %rbp
  406983:	48 89 e5             	mov    %rsp,%rbp
  406986:	48 83 ec 10          	sub    $0x10,%rsp
  40698a:	48 89 7d f8          	mov    %rdi,-0x8(%rbp)
      { _M_dispose(); }
  40698e:	48 8b 45 f8          	mov    -0x8(%rbp),%rax
  406992:	48 89 c7             	mov    %rax,%rdi
  406995:	e8 0c 21 00 00       	call   408aa6 <_ZNSt7__cxx1112basic_stringIcSt11char_traitsIcESaIcEE10_M_disposeEv>
  40699a:	48 8b 45 f8          	mov    -0x8(%rbp),%rax
  40699e:	48 89 c7             	mov    %rax,%rdi
  4069a1:	e8 2c e0 ff ff       	call   4049d2 <_ZNSt7__cxx1112basic_stringIcSt11char_traitsIcESaIcEE12_Alloc_hiderD1Ev>
  4069a6:	90                   	nop
  4069a7:	c9                   	leave
  4069a8:	c3                   	ret

00000000004069a9 <_ZNSt8__detail18__to_chars_10_implIjEEvPcjT_>:
  // Write an unsigned integer value to the range [first,first+len).
  // The caller is required to provide a buffer of exactly the right size
  // (which can be determined by the __to_chars_len function).
  template<typename _Tp>
    _GLIBCXX23_CONSTEXPR void
    __to_chars_10_impl(char* __first, unsigned __len, _Tp __val) noexcept
  4069a9:	55                   	push   %rbp
  4069aa:	48 89 e5             	mov    %rsp,%rbp
  4069ad:	48 83 ec 78          	sub    $0x78,%rsp
  4069b1:	48 89 bd 18 ff ff ff 	mov    %rdi,-0xe8(%rbp)
  4069b8:	89 b5 14 ff ff ff    	mov    %esi,-0xec(%rbp)
  4069be:	89 95 10 ff ff ff    	mov    %edx,-0xf0(%rbp)
    {
#if __cpp_variable_templates
      static_assert(__integer_to_chars_is_unsigned<_Tp>, "implementation bug");
#endif

      constexpr char __digits[201] =
  4069c4:	48 b8 30 30 30 31 30 	movabs $0x3330323031303030,%rax
  4069cb:	32 30 33
  4069ce:	48 ba 30 34 30 35 30 	movabs $0x3730363035303430,%rdx
  4069d5:	36 30 37
  4069d8:	48 89 85 20 ff ff ff 	mov    %rax,-0xe0(%rbp)
  4069df:	48 89 95 28 ff ff ff 	mov    %rdx,-0xd8(%rbp)
  4069e6:	48 b8 30 38 30 39 31 	movabs $0x3131303139303830,%rax
  4069ed:	30 31 31
  4069f0:	48 ba 31 32 31 33 31 	movabs $0x3531343133313231,%rdx
  4069f7:	34 31 35
  4069fa:	48 89 85 30 ff ff ff 	mov    %rax,-0xd0(%rbp)
  406a01:	48 89 95 38 ff ff ff 	mov    %rdx,-0xc8(%rbp)
  406a08:	48 b8 31 36 31 37 31 	movabs $0x3931383137313631,%rax
  406a0f:	38 31 39
  406a12:	48 ba 32 30 32 31 32 	movabs $0x3332323231323032,%rdx
  406a19:	32 32 33
  406a1c:	48 89 85 40 ff ff ff 	mov    %rax,-0xc0(%rbp)
  406a23:	48 89 95 48 ff ff ff 	mov    %rdx,-0xb8(%rbp)
  406a2a:	48 b8 32 34 32 35 32 	movabs $0x3732363235323432,%rax
  406a31:	36 32 37
  406a34:	48 ba 32 38 32 39 33 	movabs $0x3133303339323832,%rdx
  406a3b:	30 33 31
  406a3e:	48 89 85 50 ff ff ff 	mov    %rax,-0xb0(%rbp)
  406a45:	48 89 95 58 ff ff ff 	mov    %rdx,-0xa8(%rbp)
  406a4c:	48 b8 33 32 33 33 33 	movabs $0x3533343333333233,%rax
  406a53:	34 33 35
  406a56:	48 ba 33 36 33 37 33 	movabs $0x3933383337333633,%rdx
  406a5d:	38 33 39
  406a60:	48 89 85 60 ff ff ff 	mov    %rax,-0xa0(%rbp)
  406a67:	48 89 95 68 ff ff ff 	mov    %rdx,-0x98(%rbp)
  406a6e:	48 b8 34 30 34 31 34 	movabs $0x3334323431343034,%rax
  406a75:	32 34 33
  406a78:	48 ba 34 34 34 35 34 	movabs $0x3734363435343434,%rdx
  406a7f:	36 34 37
  406a82:	48 89 85 70 ff ff ff 	mov    %rax,-0x90(%rbp)
  406a89:	48 89 95 78 ff ff ff 	mov    %rdx,-0x88(%rbp)
  406a90:	48 b8 34 38 34 39 35 	movabs $0x3135303539343834,%rax
  406a97:	30 35 31
  406a9a:	48 ba 35 32 35 33 35 	movabs $0x3535343533353235,%rdx
  406aa1:	34 35 35
  406aa4:	48 89 45 80          	mov    %rax,-0x80(%rbp)
  406aa8:	48 89 55 88          	mov    %rdx,-0x78(%rbp)
  406aac:	48 b8 35 36 35 37 35 	movabs $0x3935383537353635,%rax
  406ab3:	38 35 39
  406ab6:	48 ba 36 30 36 31 36 	movabs $0x3336323631363036,%rdx
  406abd:	32 36 33
  406ac0:	48 89 45 90          	mov    %rax,-0x70(%rbp)
  406ac4:	48 89 55 98          	mov    %rdx,-0x68(%rbp)
  406ac8:	48 b8 36 34 36 35 36 	movabs $0x3736363635363436,%rax
  406acf:	36 36 37
  406ad2:	48 ba 36 38 36 39 37 	movabs $0x3137303739363836,%rdx
  406ad9:	30 37 31
  406adc:	48 89 45 a0          	mov    %rax,-0x60(%rbp)
  406ae0:	48 89 55 a8          	mov    %rdx,-0x58(%rbp)
  406ae4:	48 b8 37 32 37 33 37 	movabs $0x3537343733373237,%rax
  406aeb:	34 37 35
  406aee:	48 ba 37 36 37 37 37 	movabs $0x3937383737373637,%rdx
  406af5:	38 37 39
  406af8:	48 89 45 b0          	mov    %rax,-0x50(%rbp)
  406afc:	48 89 55 b8          	mov    %rdx,-0x48(%rbp)
  406b00:	48 b8 38 30 38 31 38 	movabs $0x3338323831383038,%rax
  406b07:	32 38 33
  406b0a:	48 ba 38 34 38 35 38 	movabs $0x3738363835383438,%rdx
  406b11:	36 38 37
  406b14:	48 89 45 c0          	mov    %rax,-0x40(%rbp)
  406b18:	48 89 55 c8          	mov    %rdx,-0x38(%rbp)
  406b1c:	48 b8 38 38 38 39 39 	movabs $0x3139303939383838,%rax
  406b23:	30 39 31
  406b26:	48 ba 39 32 39 33 39 	movabs $0x3539343933393239,%rdx
  406b2d:	34 39 35
  406b30:	48 89 45 d0          	mov    %rax,-0x30(%rbp)
  406b34:	48 89 55 d8          	mov    %rdx,-0x28(%rbp)
  406b38:	48 b8 32 39 33 39 34 	movabs $0x3935393439333932,%rax
  406b3f:	39 35 39
  406b42:	48 ba 36 39 37 39 38 	movabs $0x39393839373936,%rdx
  406b49:	39 39 00
  406b4c:	48 89 45 d9          	mov    %rax,-0x27(%rbp)
  406b50:	48 89 55 e1          	mov    %rdx,-0x1f(%rbp)
	"0001020304050607080910111213141516171819"
	"2021222324252627282930313233343536373839"
	"4041424344454647484950515253545556575859"
	"6061626364656667686970717273747576777879"
	"8081828384858687888990919293949596979899";
      unsigned __pos = __len - 1;
  406b54:	8b 85 14 ff ff ff    	mov    -0xec(%rbp),%eax
  406b5a:	83 e8 01             	sub    $0x1,%eax
  406b5d:	89 45 fc             	mov    %eax,-0x4(%rbp)
      while (__val >= 100)
  406b60:	e9 80 00 00 00       	jmp    406be5 <_ZNSt8__detail18__to_chars_10_implIjEEvPcjT_+0x23c>
	{
	  auto const __num = (__val % 100) * 2;
  406b65:	8b 8d 10 ff ff ff    	mov    -0xf0(%rbp),%ecx
  406b6b:	89 c8                	mov    %ecx,%eax
  406b6d:	48 69 c0 1f 85 eb 51 	imul   $0x51eb851f,%rax,%rax
  406b74:	48 c1 e8 20          	shr    $0x20,%rax
  406b78:	c1 e8 05             	shr    $0x5,%eax
  406b7b:	6b d0 64             	imul   $0x64,%eax,%edx
  406b7e:	89 c8                	mov    %ecx,%eax
  406b80:	29 d0                	sub    %edx,%eax
  406b82:	01 c0                	add    %eax,%eax
  406b84:	89 45 f4             	mov    %eax,-0xc(%rbp)
	  __val /= 100;
  406b87:	8b 85 10 ff ff ff    	mov    -0xf0(%rbp),%eax
  406b8d:	89 c0                	mov    %eax,%eax
  406b8f:	48 69 c0 1f 85 eb 51 	imul   $0x51eb851f,%rax,%rax
  406b96:	48 c1 e8 20          	shr    $0x20,%rax
  406b9a:	c1 e8 05             	shr    $0x5,%eax
  406b9d:	89 85 10 ff ff ff    	mov    %eax,-0xf0(%rbp)
	  __first[__pos] = __digits[__num + 1];
  406ba3:	8b 45 f4             	mov    -0xc(%rbp),%eax
  406ba6:	8d 48 01             	lea    0x1(%rax),%ecx
  406ba9:	8b 55 fc             	mov    -0x4(%rbp),%edx
  406bac:	48 8b 85 18 ff ff ff 	mov    -0xe8(%rbp),%rax
  406bb3:	48 01 c2             	add    %rax,%rdx
  406bb6:	89 c8                	mov    %ecx,%eax
  406bb8:	0f b6 84 05 20 ff ff 	movzbl -0xe0(%rbp,%rax,1),%eax
  406bbf:	ff
  406bc0:	88 02                	mov    %al,(%rdx)
	  __first[__pos - 1] = __digits[__num];
  406bc2:	8b 45 fc             	mov    -0x4(%rbp),%eax
  406bc5:	83 e8 01             	sub    $0x1,%eax
  406bc8:	89 c2                	mov    %eax,%edx
  406bca:	48 8b 85 18 ff ff ff 	mov    -0xe8(%rbp),%rax
  406bd1:	48 01 c2             	add    %rax,%rdx
  406bd4:	8b 45 f4             	mov    -0xc(%rbp),%eax
  406bd7:	0f b6 84 05 20 ff ff 	movzbl -0xe0(%rbp,%rax,1),%eax
  406bde:	ff
  406bdf:	88 02                	mov    %al,(%rdx)
	  __pos -= 2;
  406be1:	83 6d fc 02          	subl   $0x2,-0x4(%rbp)
      while (__val >= 100)
  406be5:	83 bd 10 ff ff ff 63 	cmpl   $0x63,-0xf0(%rbp)
  406bec:	0f 87 73 ff ff ff    	ja     406b65 <_ZNSt8__detail18__to_chars_10_implIjEEvPcjT_+0x1bc>
	}
      if (__val >= 10)
  406bf2:	83 bd 10 ff ff ff 09 	cmpl   $0x9,-0xf0(%rbp)
  406bf9:	76 3e                	jbe    406c39 <_ZNSt8__detail18__to_chars_10_implIjEEvPcjT_+0x290>
	{
	  auto const __num = __val * 2;
  406bfb:	8b 85 10 ff ff ff    	mov    -0xf0(%rbp),%eax
  406c01:	01 c0                	add    %eax,%eax
  406c03:	89 45 f8             	mov    %eax,-0x8(%rbp)
	  __first[1] = __digits[__num + 1];
  406c06:	8b 45 f8             	mov    -0x8(%rbp),%eax
  406c09:	8d 48 01             	lea    0x1(%rax),%ecx
  406c0c:	48 8b 85 18 ff ff ff 	mov    -0xe8(%rbp),%rax
  406c13:	48 8d 50 01          	lea    0x1(%rax),%rdx
  406c17:	89 c8                	mov    %ecx,%eax
  406c19:	0f b6 84 05 20 ff ff 	movzbl -0xe0(%rbp,%rax,1),%eax
  406c20:	ff
  406c21:	88 02                	mov    %al,(%rdx)
	  __first[0] = __digits[__num];
  406c23:	8b 45 f8             	mov    -0x8(%rbp),%eax
  406c26:	0f b6 94 05 20 ff ff 	movzbl -0xe0(%rbp,%rax,1),%edx
  406c2d:	ff
  406c2e:	48 8b 85 18 ff ff ff 	mov    -0xe8(%rbp),%rax
  406c35:	88 10                	mov    %dl,(%rax)
	}
      else
	__first[0] = '0' + __val;
    }
  406c37:	eb 14                	jmp    406c4d <_ZNSt8__detail18__to_chars_10_implIjEEvPcjT_+0x2a4>
	__first[0] = '0' + __val;
  406c39:	8b 85 10 ff ff ff    	mov    -0xf0(%rbp),%eax
  406c3f:	83 c0 30             	add    $0x30,%eax
  406c42:	89 c2                	mov    %eax,%edx
  406c44:	48 8b 85 18 ff ff ff 	mov    -0xe8(%rbp),%rax
  406c4b:	88 10                	mov    %dl,(%rax)
    }
  406c4d:	90                   	nop
  406c4e:	c9                   	leave
  406c4f:	c3                   	ret

0000000000406c50 <_ZNSt7__cxx1112basic_stringIcSt11char_traitsIcESaIcEE16_M_get_allocatorEv>:
      _M_get_allocator()
  406c50:	55                   	push   %rbp
  406c51:	48 89 e5             	mov    %rsp,%rbp
  406c54:	48 89 7d f8          	mov    %rdi,-0x8(%rbp)
      { return _M_dataplus; }
  406c58:	48 8b 45 f8          	mov    -0x8(%rbp),%rax
  406c5c:	5d                   	pop    %rbp
  406c5d:	c3                   	ret

0000000000406c5e <_ZNKSt7__cxx1112basic_stringIcSt11char_traitsIcESaIcEE11_M_is_localEv>:
      _M_is_local() const
  406c5e:	55                   	push   %rbp
  406c5f:	48 89 e5             	mov    %rsp,%rbp
  406c62:	53                   	push   %rbx
  406c63:	48 83 ec 18          	sub    $0x18,%rsp
  406c67:	48 89 7d e8          	mov    %rdi,-0x18(%rbp)
	if (_M_data() == _M_local_data())
  406c6b:	48 8b 45 e8          	mov    -0x18(%rbp),%rax
  406c6f:	48 89 c7             	mov    %rax,%rdi
  406c72:	e8 ad fc ff ff       	call   406924 <_ZNKSt7__cxx1112basic_stringIcSt11char_traitsIcESaIcEE7_M_dataEv>
  406c77:	48 89 c3             	mov    %rax,%rbx
  406c7a:	48 8b 45 e8          	mov    -0x18(%rbp),%rax
  406c7e:	48 89 c7             	mov    %rax,%rdi
  406c81:	e8 5a 1e 00 00       	call   408ae0 <_ZNKSt7__cxx1112basic_stringIcSt11char_traitsIcESaIcEE13_M_local_dataEv>
  406c86:	48 39 c3             	cmp    %rax,%rbx
  406c89:	0f 94 c0             	sete   %al
  406c8c:	84 c0                	test   %al,%al
  406c8e:	74 13                	je     406ca3 <_ZNKSt7__cxx1112basic_stringIcSt11char_traitsIcESaIcEE11_M_is_localEv+0x45>
	    if (_M_string_length > _S_local_capacity)
  406c90:	48 8b 45 e8          	mov    -0x18(%rbp),%rax
  406c94:	48 8b 40 08          	mov    0x8(%rax),%rax
  406c98:	48 83 f8 0f          	cmp    $0xf,%rax
	    return true;
  406c9c:	b8 01 00 00 00       	mov    $0x1,%eax
  406ca1:	eb 05                	jmp    406ca8 <_ZNKSt7__cxx1112basic_stringIcSt11char_traitsIcESaIcEE11_M_is_localEv+0x4a>
	return false;
  406ca3:	b8 00 00 00 00       	mov    $0x0,%eax
      }
  406ca8:	48 8b 5d f8          	mov    -0x8(%rbp),%rbx
  406cac:	c9                   	leave
  406cad:	c3                   	ret

0000000000406cae <_ZNKSt7__cxx1112basic_stringIcSt11char_traitsIcESaIcEE6lengthEv>:

      ///  Returns the number of characters in the string, not including any
      ///  null-termination.
      _GLIBCXX_NODISCARD _GLIBCXX20_CONSTEXPR
      size_type
      length() const _GLIBCXX_NOEXCEPT
  406cae:	55                   	push   %rbp
  406caf:	48 89 e5             	mov    %rsp,%rbp
  406cb2:	48 89 7d f8          	mov    %rdi,-0x8(%rbp)
      { return _M_string_length; }
  406cb6:	48 8b 45 f8          	mov    -0x8(%rbp),%rax
  406cba:	48 8b 40 08          	mov    0x8(%rax),%rax
  406cbe:	5d                   	pop    %rbp
  406cbf:	c3                   	ret

0000000000406cc0 <_ZNSt7__cxx1112basic_stringIcSt11char_traitsIcESaIcEEC1EOS4_>:
      basic_string(basic_string&& __str) noexcept
  406cc0:	55                   	push   %rbp
  406cc1:	48 89 e5             	mov    %rsp,%rbp
  406cc4:	41 54                	push   %r12
  406cc6:	53                   	push   %rbx
  406cc7:	48 83 ec 40          	sub    $0x40,%rsp
  406ccb:	48 89 7d b8          	mov    %rdi,-0x48(%rbp)
  406ccf:	48 89 75 b0          	mov    %rsi,-0x50(%rbp)
      : _M_dataplus(_M_local_data(), std::move(__str._M_get_allocator()))
  406cd3:	48 8b 5d b8          	mov    -0x48(%rbp),%rbx
  406cd7:	48 8b 45 b0          	mov    -0x50(%rbp),%rax
  406cdb:	48 89 c7             	mov    %rax,%rdi
  406cde:	e8 6d ff ff ff       	call   406c50 <_ZNSt7__cxx1112basic_stringIcSt11char_traitsIcESaIcEE16_M_get_allocatorEv>
  406ce3:	48 89 c7             	mov    %rax,%rdi
  406ce6:	e8 d9 dc ff ff       	call   4049c4 <_ZSt4moveIRSaIcEEONSt16remove_referenceIT_E4typeEOS3_>
  406ceb:	49 89 c4             	mov    %rax,%r12
  406cee:	48 8b 45 b8          	mov    -0x48(%rbp),%rax
  406cf2:	48 89 c7             	mov    %rax,%rdi
  406cf5:	e8 1e dc ff ff       	call   404918 <_ZNSt7__cxx1112basic_stringIcSt11char_traitsIcESaIcEE13_M_local_dataEv>
  406cfa:	4c 89 e2             	mov    %r12,%rdx
  406cfd:	48 89 c6             	mov    %rax,%rsi
  406d00:	48 89 df             	mov    %rbx,%rdi
  406d03:	e8 70 dc ff ff       	call   404978 <_ZNSt7__cxx1112basic_stringIcSt11char_traitsIcESaIcEE12_Alloc_hiderC1EPcOS3_>
	if (__str._M_is_local())
  406d08:	48 8b 45 b0          	mov    -0x50(%rbp),%rax
  406d0c:	48 89 c7             	mov    %rax,%rdi
  406d0f:	e8 4a ff ff ff       	call   406c5e <_ZNKSt7__cxx1112basic_stringIcSt11char_traitsIcESaIcEE11_M_is_localEv>
  406d14:	84 c0                	test   %al,%al
  406d16:	74 67                	je     406d7f <_ZNSt7__cxx1112basic_stringIcSt11char_traitsIcESaIcEEC1EOS4_+0xbf>
  406d18:	48 8b 45 b8          	mov    -0x48(%rbp),%rax
  406d1c:	48 89 45 e8          	mov    %rax,-0x18(%rbp)
	if (std::is_constant_evaluated())
  406d20:	e8 16 d8 ff ff       	call   40453b <_ZSt21is_constant_evaluatedv>
  406d25:	84 c0                	test   %al,%al
  406d27:	74 28                	je     406d51 <_ZNSt7__cxx1112basic_stringIcSt11char_traitsIcESaIcEEC1EOS4_+0x91>
	  for (size_type __i = 0; __i <= _S_local_capacity; ++__i)
  406d29:	48 c7 45 e0 00 00 00 	movq   $0x0,-0x20(%rbp)
  406d30:	00
  406d31:	eb 17                	jmp    406d4a <_ZNSt7__cxx1112basic_stringIcSt11char_traitsIcESaIcEEC1EOS4_+0x8a>
	    _M_local_buf[__i] = _CharT();
  406d33:	48 8b 55 e8          	mov    -0x18(%rbp),%rdx
  406d37:	48 8b 45 e0          	mov    -0x20(%rbp),%rax
  406d3b:	48 01 d0             	add    %rdx,%rax
  406d3e:	48 83 c0 10          	add    $0x10,%rax
  406d42:	c6 00 00             	movb   $0x0,(%rax)
	  for (size_type __i = 0; __i <= _S_local_capacity; ++__i)
  406d45:	48 83 45 e0 01       	addq   $0x1,-0x20(%rbp)
  406d4a:	48 83 7d e0 0f       	cmpq   $0xf,-0x20(%rbp)
  406d4f:	76 e2                	jbe    406d33 <_ZNSt7__cxx1112basic_stringIcSt11char_traitsIcESaIcEEC1EOS4_+0x73>
      }
  406d51:	90                   	nop
			      __str.length() + 1);
  406d52:	48 8b 45 b0          	mov    -0x50(%rbp),%rax
  406d56:	48 89 c7             	mov    %rax,%rdi
  406d59:	e8 50 ff ff ff       	call   406cae <_ZNKSt7__cxx1112basic_stringIcSt11char_traitsIcESaIcEE6lengthEv>
	    traits_type::copy(_M_local_buf, __str._M_local_buf,
  406d5e:	48 8d 50 01          	lea    0x1(%rax),%rdx
  406d62:	48 8b 45 b0          	mov    -0x50(%rbp),%rax
  406d66:	48 8d 48 10          	lea    0x10(%rax),%rcx
  406d6a:	48 8b 45 b8          	mov    -0x48(%rbp),%rax
  406d6e:	48 83 c0 10          	add    $0x10,%rax
  406d72:	48 89 ce             	mov    %rcx,%rsi
  406d75:	48 89 c7             	mov    %rax,%rdi
  406d78:	e8 98 da ff ff       	call   404815 <_ZNSt11char_traitsIcE4copyEPcPKcm>
  406d7d:	eb 35                	jmp    406db4 <_ZNSt7__cxx1112basic_stringIcSt11char_traitsIcESaIcEEC1EOS4_+0xf4>
	    _M_data(__str._M_data());
  406d7f:	48 8b 45 b0          	mov    -0x50(%rbp),%rax
  406d83:	48 89 c7             	mov    %rax,%rdi
  406d86:	e8 99 fb ff ff       	call   406924 <_ZNKSt7__cxx1112basic_stringIcSt11char_traitsIcESaIcEE7_M_dataEv>
  406d8b:	48 89 c2             	mov    %rax,%rdx
  406d8e:	48 8b 45 b8          	mov    -0x48(%rbp),%rax
  406d92:	48 89 d6             	mov    %rdx,%rsi
  406d95:	48 89 c7             	mov    %rax,%rdi
  406d98:	e8 61 1d 00 00       	call   408afe <_ZNSt7__cxx1112basic_stringIcSt11char_traitsIcESaIcEE7_M_dataEPc>
	    _M_capacity(__str._M_allocated_capacity);
  406d9d:	48 8b 45 b0          	mov    -0x50(%rbp),%rax
  406da1:	48 8b 50 10          	mov    0x10(%rax),%rdx
  406da5:	48 8b 45 b8          	mov    -0x48(%rbp),%rax
  406da9:	48 89 d6             	mov    %rdx,%rsi
  406dac:	48 89 c7             	mov    %rax,%rdi
  406daf:	e8 64 1d 00 00       	call   408b18 <_ZNSt7__cxx1112basic_stringIcSt11char_traitsIcESaIcEE11_M_capacityEm>
	_M_length(__str.length());
  406db4:	48 8b 45 b0          	mov    -0x50(%rbp),%rax
  406db8:	48 89 c7             	mov    %rax,%rdi
  406dbb:	e8 ee fe ff ff       	call   406cae <_ZNKSt7__cxx1112basic_stringIcSt11char_traitsIcESaIcEE6lengthEv>
  406dc0:	48 89 c2             	mov    %rax,%rdx
  406dc3:	48 8b 45 b8          	mov    -0x48(%rbp),%rax
  406dc7:	48 89 d6             	mov    %rdx,%rsi
  406dca:	48 89 c7             	mov    %rax,%rdi
  406dcd:	e8 b8 1c 00 00       	call   408a8a <_ZNSt7__cxx1112basic_stringIcSt11char_traitsIcESaIcEE9_M_lengthEm>
  406dd2:	48 8b 45 b0          	mov    -0x50(%rbp),%rax
  406dd6:	48 89 45 d8          	mov    %rax,-0x28(%rbp)
  406dda:	48 8b 45 d8          	mov    -0x28(%rbp),%rax
  406dde:	48 89 45 d0          	mov    %rax,-0x30(%rbp)
	if (std::is_constant_evaluated())
  406de2:	e8 54 d7 ff ff       	call   40453b <_ZSt21is_constant_evaluatedv>
  406de7:	84 c0                	test   %al,%al
  406de9:	74 28                	je     406e13 <_ZNSt7__cxx1112basic_stringIcSt11char_traitsIcESaIcEEC1EOS4_+0x153>
	  for (size_type __i = 0; __i <= _S_local_capacity; ++__i)
  406deb:	48 c7 45 c8 00 00 00 	movq   $0x0,-0x38(%rbp)
  406df2:	00
  406df3:	eb 17                	jmp    406e0c <_ZNSt7__cxx1112basic_stringIcSt11char_traitsIcESaIcEEC1EOS4_+0x14c>
	    _M_local_buf[__i] = _CharT();
  406df5:	48 8b 55 d0          	mov    -0x30(%rbp),%rdx
  406df9:	48 8b 45 c8          	mov    -0x38(%rbp),%rax
  406dfd:	48 01 d0             	add    %rdx,%rax
  406e00:	48 83 c0 10          	add    $0x10,%rax
  406e04:	c6 00 00             	movb   $0x0,(%rax)
	  for (size_type __i = 0; __i <= _S_local_capacity; ++__i)
  406e07:	48 83 45 c8 01       	addq   $0x1,-0x38(%rbp)
  406e0c:	48 83 7d c8 0f       	cmpq   $0xf,-0x38(%rbp)
  406e11:	76 e2                	jbe    406df5 <_ZNSt7__cxx1112basic_stringIcSt11char_traitsIcESaIcEEC1EOS4_+0x135>
      }
  406e13:	90                   	nop
	return _M_local_data();
  406e14:	48 8b 45 d8          	mov    -0x28(%rbp),%rax
  406e18:	48 89 c7             	mov    %rax,%rdi
  406e1b:	e8 f8 da ff ff       	call   404918 <_ZNSt7__cxx1112basic_stringIcSt11char_traitsIcESaIcEE13_M_local_dataEv>
  406e20:	48 89 c2             	mov    %rax,%rdx
  406e23:	90                   	nop
	__str._M_data(__str._M_use_local_data());
  406e24:	48 8b 45 b0          	mov    -0x50(%rbp),%rax
  406e28:	48 89 d6             	mov    %rdx,%rsi
  406e2b:	48 89 c7             	mov    %rax,%rdi
  406e2e:	e8 cb 1c 00 00       	call   408afe <_ZNSt7__cxx1112basic_stringIcSt11char_traitsIcESaIcEE7_M_dataEPc>
	__str._M_set_length(0);
  406e33:	48 8b 45 b0          	mov    -0x50(%rbp),%rax
  406e37:	be 00 00 00 00       	mov    $0x0,%esi
  406e3c:	48 89 c7             	mov    %rax,%rdi
  406e3f:	e8 f2 fa ff ff       	call   406936 <_ZNSt7__cxx1112basic_stringIcSt11char_traitsIcESaIcEE13_M_set_lengthEm>
      }
  406e44:	90                   	nop
  406e45:	48 83 c4 40          	add    $0x40,%rsp
  406e49:	5b                   	pop    %rbx
  406e4a:	41 5c                	pop    %r12
  406e4c:	5d                   	pop    %rbp
  406e4d:	c3                   	ret

0000000000406e4e <_ZNSt8__detail18__to_chars_10_implImEEvPcjT_>:
    __to_chars_10_impl(char* __first, unsigned __len, _Tp __val) noexcept
  406e4e:	55                   	push   %rbp
  406e4f:	48 89 e5             	mov    %rsp,%rbp
  406e52:	48 81 ec 98 00 00 00 	sub    $0x98,%rsp
  406e59:	48 89 bd 08 ff ff ff 	mov    %rdi,-0xf8(%rbp)
  406e60:	89 b5 04 ff ff ff    	mov    %esi,-0xfc(%rbp)
  406e66:	48 89 95 f8 fe ff ff 	mov    %rdx,-0x108(%rbp)
      constexpr char __digits[201] =
  406e6d:	48 b8 30 30 30 31 30 	movabs $0x3330323031303030,%rax
  406e74:	32 30 33
  406e77:	48 ba 30 34 30 35 30 	movabs $0x3730363035303430,%rdx
  406e7e:	36 30 37
  406e81:	48 89 85 10 ff ff ff 	mov    %rax,-0xf0(%rbp)
  406e88:	48 89 95 18 ff ff ff 	mov    %rdx,-0xe8(%rbp)
  406e8f:	48 b8 30 38 30 39 31 	movabs $0x3131303139303830,%rax
  406e96:	30 31 31
  406e99:	48 ba 31 32 31 33 31 	movabs $0x3531343133313231,%rdx
  406ea0:	34 31 35
  406ea3:	48 89 85 20 ff ff ff 	mov    %rax,-0xe0(%rbp)
  406eaa:	48 89 95 28 ff ff ff 	mov    %rdx,-0xd8(%rbp)
  406eb1:	48 b8 31 36 31 37 31 	movabs $0x3931383137313631,%rax
  406eb8:	38 31 39
  406ebb:	48 ba 32 30 32 31 32 	movabs $0x3332323231323032,%rdx
  406ec2:	32 32 33
  406ec5:	48 89 85 30 ff ff ff 	mov    %rax,-0xd0(%rbp)
  406ecc:	48 89 95 38 ff ff ff 	mov    %rdx,-0xc8(%rbp)
  406ed3:	48 b8 32 34 32 35 32 	movabs $0x3732363235323432,%rax
  406eda:	36 32 37
  406edd:	48 ba 32 38 32 39 33 	movabs $0x3133303339323832,%rdx
  406ee4:	30 33 31
  406ee7:	48 89 85 40 ff ff ff 	mov    %rax,-0xc0(%rbp)
  406eee:	48 89 95 48 ff ff ff 	mov    %rdx,-0xb8(%rbp)
  406ef5:	48 b8 33 32 33 33 33 	movabs $0x3533343333333233,%rax
  406efc:	34 33 35
  406eff:	48 ba 33 36 33 37 33 	movabs $0x3933383337333633,%rdx
  406f06:	38 33 39
  406f09:	48 89 85 50 ff ff ff 	mov    %rax,-0xb0(%rbp)
  406f10:	48 89 95 58 ff ff ff 	mov    %rdx,-0xa8(%rbp)
  406f17:	48 b8 34 30 34 31 34 	movabs $0x3334323431343034,%rax
  406f1e:	32 34 33
  406f21:	48 ba 34 34 34 35 34 	movabs $0x3734363435343434,%rdx
  406f28:	36 34 37
  406f2b:	48 89 85 60 ff ff ff 	mov    %rax,-0xa0(%rbp)
  406f32:	48 89 95 68 ff ff ff 	mov    %rdx,-0x98(%rbp)
  406f39:	48 b8 34 38 34 39 35 	movabs $0x3135303539343834,%rax
  406f40:	30 35 31
  406f43:	48 ba 35 32 35 33 35 	movabs $0x3535343533353235,%rdx
  406f4a:	34 35 35
  406f4d:	48 89 85 70 ff ff ff 	mov    %rax,-0x90(%rbp)
  406f54:	48 89 95 78 ff ff ff 	mov    %rdx,-0x88(%rbp)
  406f5b:	48 b8 35 36 35 37 35 	movabs $0x3935383537353635,%rax
  406f62:	38 35 39
  406f65:	48 ba 36 30 36 31 36 	movabs $0x3336323631363036,%rdx
  406f6c:	32 36 33
  406f6f:	48 89 45 80          	mov    %rax,-0x80(%rbp)
  406f73:	48 89 55 88          	mov    %rdx,-0x78(%rbp)
  406f77:	48 b8 36 34 36 35 36 	movabs $0x3736363635363436,%rax
  406f7e:	36 36 37
  406f81:	48 ba 36 38 36 39 37 	movabs $0x3137303739363836,%rdx
  406f88:	30 37 31
  406f8b:	48 89 45 90          	mov    %rax,-0x70(%rbp)
  406f8f:	48 89 55 98          	mov    %rdx,-0x68(%rbp)
  406f93:	48 b8 37 32 37 33 37 	movabs $0x3537343733373237,%rax
  406f9a:	34 37 35
  406f9d:	48 ba 37 36 37 37 37 	movabs $0x3937383737373637,%rdx
  406fa4:	38 37 39
  406fa7:	48 89 45 a0          	mov    %rax,-0x60(%rbp)
  406fab:	48 89 55 a8          	mov    %rdx,-0x58(%rbp)
  406faf:	48 b8 38 30 38 31 38 	movabs $0x3338323831383038,%rax
  406fb6:	32 38 33
  406fb9:	48 ba 38 34 38 35 38 	movabs $0x3738363835383438,%rdx
  406fc0:	36 38 37
  406fc3:	48 89 45 b0          	mov    %rax,-0x50(%rbp)
  406fc7:	48 89 55 b8          	mov    %rdx,-0x48(%rbp)
  406fcb:	48 b8 38 38 38 39 39 	movabs $0x3139303939383838,%rax
  406fd2:	30 39 31
  406fd5:	48 ba 39 32 39 33 39 	movabs $0x3539343933393239,%rdx
  406fdc:	34 39 35
  406fdf:	48 89 45 c0          	mov    %rax,-0x40(%rbp)
  406fe3:	48 89 55 c8          	mov    %rdx,-0x38(%rbp)
  406fe7:	48 b8 32 39 33 39 34 	movabs $0x3935393439333932,%rax
  406fee:	39 35 39
  406ff1:	48 ba 36 39 37 39 38 	movabs $0x39393839373936,%rdx
  406ff8:	39 39 00
  406ffb:	48 89 45 c9          	mov    %rax,-0x37(%rbp)
  406fff:	48 89 55 d1          	mov    %rdx,-0x2f(%rbp)
      unsigned __pos = __len - 1;
  407003:	8b 85 04 ff ff ff    	mov    -0xfc(%rbp),%eax
  407009:	83 e8 01             	sub    $0x1,%eax
  40700c:	89 45 fc             	mov    %eax,-0x4(%rbp)
      while (__val >= 100)
  40700f:	e9 b4 00 00 00       	jmp    4070c8 <_ZNSt8__detail18__to_chars_10_implImEEvPcjT_+0x27a>
	  auto const __num = (__val % 100) * 2;
  407014:	48 8b 8d f8 fe ff ff 	mov    -0x108(%rbp),%rcx
  40701b:	48 89 c8             	mov    %rcx,%rax
  40701e:	48 c1 e8 02          	shr    $0x2,%rax
  407022:	48 ba c3 f5 28 5c 8f 	movabs $0x28f5c28f5c28f5c3,%rdx
  407029:	c2 f5 28
  40702c:	48 f7 e2             	mul    %rdx
  40702f:	48 c1 ea 02          	shr    $0x2,%rdx
  407033:	48 89 d0             	mov    %rdx,%rax
  407036:	48 c1 e0 02          	shl    $0x2,%rax
  40703a:	48 01 d0             	add    %rdx,%rax
  40703d:	48 8d 14 85 00 00 00 	lea    0x0(,%rax,4),%rdx
  407044:	00
  407045:	48 01 d0             	add    %rdx,%rax
  407048:	48 c1 e0 02          	shl    $0x2,%rax
  40704c:	48 29 c1             	sub    %rax,%rcx
  40704f:	48 89 ca             	mov    %rcx,%rdx
  407052:	48 8d 04 12          	lea    (%rdx,%rdx,1),%rax
  407056:	48 89 45 e8          	mov    %rax,-0x18(%rbp)
	  __val /= 100;
  40705a:	48 8b 85 f8 fe ff ff 	mov    -0x108(%rbp),%rax
  407061:	48 c1 e8 02          	shr    $0x2,%rax
  407065:	48 ba c3 f5 28 5c 8f 	movabs $0x28f5c28f5c28f5c3,%rdx
  40706c:	c2 f5 28
  40706f:	48 f7 e2             	mul    %rdx
  407072:	48 89 d0             	mov    %rdx,%rax
  407075:	48 c1 e8 02          	shr    $0x2,%rax
  407079:	48 89 85 f8 fe ff ff 	mov    %rax,-0x108(%rbp)
	  __first[__pos] = __digits[__num + 1];
  407080:	48 8b 45 e8          	mov    -0x18(%rbp),%rax
  407084:	48 83 c0 01          	add    $0x1,%rax
  407088:	8b 4d fc             	mov    -0x4(%rbp),%ecx
  40708b:	48 8b 95 08 ff ff ff 	mov    -0xf8(%rbp),%rdx
  407092:	48 01 ca             	add    %rcx,%rdx
  407095:	0f b6 84 05 10 ff ff 	movzbl -0xf0(%rbp,%rax,1),%eax
  40709c:	ff
  40709d:	88 02                	mov    %al,(%rdx)
	  __first[__pos - 1] = __digits[__num];
  40709f:	8b 45 fc             	mov    -0x4(%rbp),%eax
  4070a2:	83 e8 01             	sub    $0x1,%eax
  4070a5:	89 c2                	mov    %eax,%edx
  4070a7:	48 8b 85 08 ff ff ff 	mov    -0xf8(%rbp),%rax
  4070ae:	48 01 c2             	add    %rax,%rdx
  4070b1:	48 8d 8d 10 ff ff ff 	lea    -0xf0(%rbp),%rcx
  4070b8:	48 8b 45 e8          	mov    -0x18(%rbp),%rax
  4070bc:	48 01 c8             	add    %rcx,%rax
  4070bf:	0f b6 00             	movzbl (%rax),%eax
  4070c2:	88 02                	mov    %al,(%rdx)
	  __pos -= 2;
  4070c4:	83 6d fc 02          	subl   $0x2,-0x4(%rbp)
      while (__val >= 100)
  4070c8:	48 83 bd f8 fe ff ff 	cmpq   $0x63,-0x108(%rbp)
  4070cf:	63
  4070d0:	0f 87 3e ff ff ff    	ja     407014 <_ZNSt8__detail18__to_chars_10_implImEEvPcjT_+0x1c6>
      if (__val >= 10)
  4070d6:	48 83 bd f8 fe ff ff 	cmpq   $0x9,-0x108(%rbp)
  4070dd:	09
  4070de:	76 47                	jbe    407127 <_ZNSt8__detail18__to_chars_10_implImEEvPcjT_+0x2d9>
	  auto const __num = __val * 2;
  4070e0:	48 8b 85 f8 fe ff ff 	mov    -0x108(%rbp),%rax
  4070e7:	48 01 c0             	add    %rax,%rax
  4070ea:	48 89 45 f0          	mov    %rax,-0x10(%rbp)
	  __first[1] = __digits[__num + 1];
  4070ee:	48 8b 45 f0          	mov    -0x10(%rbp),%rax
  4070f2:	48 83 c0 01          	add    $0x1,%rax
  4070f6:	48 8b 95 08 ff ff ff 	mov    -0xf8(%rbp),%rdx
  4070fd:	48 83 c2 01          	add    $0x1,%rdx
  407101:	0f b6 84 05 10 ff ff 	movzbl -0xf0(%rbp,%rax,1),%eax
  407108:	ff
  407109:	88 02                	mov    %al,(%rdx)
	  __first[0] = __digits[__num];
  40710b:	48 8d 95 10 ff ff ff 	lea    -0xf0(%rbp),%rdx
  407112:	48 8b 45 f0          	mov    -0x10(%rbp),%rax
  407116:	48 01 d0             	add    %rdx,%rax
  407119:	0f b6 10             	movzbl (%rax),%edx
  40711c:	48 8b 85 08 ff ff ff 	mov    -0xf8(%rbp),%rax
  407123:	88 10                	mov    %dl,(%rax)
    }
  407125:	eb 15                	jmp    40713c <_ZNSt8__detail18__to_chars_10_implImEEvPcjT_+0x2ee>
	__first[0] = '0' + __val;
  407127:	48 8b 85 f8 fe ff ff 	mov    -0x108(%rbp),%rax
  40712e:	83 c0 30             	add    $0x30,%eax
  407131:	89 c2                	mov    %eax,%edx
  407133:	48 8b 85 08 ff ff ff 	mov    -0xf8(%rbp),%rax
  40713a:	88 10                	mov    %dl,(%rax)
    }
  40713c:	90                   	nop
  40713d:	c9                   	leave
  40713e:	c3                   	ret

000000000040713f <_ZNSt8__detail18__to_chars_10_implIyEEvPcjT_>:
    __to_chars_10_impl(char* __first, unsigned __len, _Tp __val) noexcept
  40713f:	55                   	push   %rbp
  407140:	48 89 e5             	mov    %rsp,%rbp
  407143:	48 81 ec 98 00 00 00 	sub    $0x98,%rsp
  40714a:	48 89 bd 08 ff ff ff 	mov    %rdi,-0xf8(%rbp)
  407151:	89 b5 04 ff ff ff    	mov    %esi,-0xfc(%rbp)
  407157:	48 89 95 f8 fe ff ff 	mov    %rdx,-0x108(%rbp)
